
Serial.elf:     file format elf32-avr

Sections:
Idx Name          Size      VMA       LMA       File off  Algn
  0 .data         00000050  00800200  00000e1a  00000eae  2**0
                  CONTENTS, ALLOC, LOAD, DATA
  1 .text         00000e1a  00000000  00000000  00000094  2**1
                  CONTENTS, ALLOC, LOAD, READONLY, CODE
  2 .bss          00000047  00800250  00800250  00000efe  2**0
                  ALLOC
  3 .stab         0000096c  00000000  00000000  00000f00  2**2
                  CONTENTS, READONLY, DEBUGGING
  4 .stabstr      0000014d  00000000  00000000  0000186c  2**0
                  CONTENTS, READONLY, DEBUGGING
  5 .debug_aranges 000001a0  00000000  00000000  000019c0  2**3
                  CONTENTS, READONLY, DEBUGGING
  6 .debug_info   0000137f  00000000  00000000  00001b60  2**0
                  CONTENTS, READONLY, DEBUGGING
  7 .debug_abbrev 0000069c  00000000  00000000  00002edf  2**0
                  CONTENTS, READONLY, DEBUGGING
  8 .debug_line   00000aed  00000000  00000000  0000357b  2**0
                  CONTENTS, READONLY, DEBUGGING
  9 .debug_frame  00000714  00000000  00000000  00004068  2**2
                  CONTENTS, READONLY, DEBUGGING
 10 .debug_str    000004ce  00000000  00000000  0000477c  2**0
                  CONTENTS, READONLY, DEBUGGING
 11 .debug_loc    000011bc  00000000  00000000  00004c4a  2**0
                  CONTENTS, READONLY, DEBUGGING
 12 .debug_ranges 00000018  00000000  00000000  00005e06  2**0
                  CONTENTS, READONLY, DEBUGGING

Disassembly of section .text:

00000000 <__vectors>:
   0:	0c 94 72 00 	jmp	0xe4	; 0xe4 <__ctors_end>
   4:	0c 94 12 04 	jmp	0x824	; 0x824 <__vector_1>
   8:	0c 94 c4 04 	jmp	0x988	; 0x988 <__vector_2>
   c:	0c 94 94 00 	jmp	0x128	; 0x128 <__bad_interrupt>
  10:	0c 94 94 00 	jmp	0x128	; 0x128 <__bad_interrupt>
  14:	0c 94 94 00 	jmp	0x128	; 0x128 <__bad_interrupt>
  18:	0c 94 94 00 	jmp	0x128	; 0x128 <__bad_interrupt>
  1c:	0c 94 94 00 	jmp	0x128	; 0x128 <__bad_interrupt>
  20:	0c 94 94 00 	jmp	0x128	; 0x128 <__bad_interrupt>
  24:	0c 94 94 00 	jmp	0x128	; 0x128 <__bad_interrupt>
  28:	0c 94 94 00 	jmp	0x128	; 0x128 <__bad_interrupt>
  2c:	0c 94 94 00 	jmp	0x128	; 0x128 <__bad_interrupt>
  30:	0c 94 94 00 	jmp	0x128	; 0x128 <__bad_interrupt>
  34:	0c 94 94 00 	jmp	0x128	; 0x128 <__bad_interrupt>
  38:	0c 94 94 00 	jmp	0x128	; 0x128 <__bad_interrupt>
  3c:	0c 94 9a 04 	jmp	0x934	; 0x934 <__vector_15>
  40:	0c 94 94 00 	jmp	0x128	; 0x128 <__bad_interrupt>
  44:	0c 94 94 00 	jmp	0x128	; 0x128 <__bad_interrupt>
  48:	0c 94 94 00 	jmp	0x128	; 0x128 <__bad_interrupt>
  4c:	0c 94 94 00 	jmp	0x128	; 0x128 <__bad_interrupt>
  50:	0c 94 94 00 	jmp	0x128	; 0x128 <__bad_interrupt>
  54:	0c 94 94 00 	jmp	0x128	; 0x128 <__bad_interrupt>
  58:	0c 94 94 00 	jmp	0x128	; 0x128 <__bad_interrupt>
  5c:	0c 94 70 04 	jmp	0x8e0	; 0x8e0 <__vector_23>
  60:	0c 94 94 00 	jmp	0x128	; 0x128 <__bad_interrupt>
  64:	0c 94 46 04 	jmp	0x88c	; 0x88c <__vector_25>
  68:	0c 94 94 00 	jmp	0x128	; 0x128 <__bad_interrupt>
  6c:	0c 94 94 00 	jmp	0x128	; 0x128 <__bad_interrupt>
  70:	0c 94 94 00 	jmp	0x128	; 0x128 <__bad_interrupt>
  74:	0c 94 94 00 	jmp	0x128	; 0x128 <__bad_interrupt>
  78:	0c 94 94 00 	jmp	0x128	; 0x128 <__bad_interrupt>
  7c:	0c 94 94 00 	jmp	0x128	; 0x128 <__bad_interrupt>
  80:	0c 94 94 00 	jmp	0x128	; 0x128 <__bad_interrupt>
  84:	0c 94 94 00 	jmp	0x128	; 0x128 <__bad_interrupt>
  88:	0c 94 94 00 	jmp	0x128	; 0x128 <__bad_interrupt>
  8c:	0c 94 ee 04 	jmp	0x9dc	; 0x9dc <__vector_35>
  90:	0c 94 94 00 	jmp	0x128	; 0x128 <__bad_interrupt>
  94:	0c 94 94 00 	jmp	0x128	; 0x128 <__bad_interrupt>
  98:	0c 94 94 00 	jmp	0x128	; 0x128 <__bad_interrupt>
  9c:	0c 94 94 00 	jmp	0x128	; 0x128 <__bad_interrupt>
  a0:	0c 94 94 00 	jmp	0x128	; 0x128 <__bad_interrupt>
  a4:	0c 94 94 00 	jmp	0x128	; 0x128 <__bad_interrupt>
  a8:	0c 94 94 00 	jmp	0x128	; 0x128 <__bad_interrupt>
  ac:	0c 94 94 00 	jmp	0x128	; 0x128 <__bad_interrupt>
  b0:	0c 94 94 00 	jmp	0x128	; 0x128 <__bad_interrupt>
  b4:	0c 94 94 00 	jmp	0x128	; 0x128 <__bad_interrupt>
  b8:	0c 94 94 00 	jmp	0x128	; 0x128 <__bad_interrupt>
  bc:	0c 94 94 00 	jmp	0x128	; 0x128 <__bad_interrupt>
  c0:	0c 94 94 00 	jmp	0x128	; 0x128 <__bad_interrupt>
  c4:	0c 94 94 00 	jmp	0x128	; 0x128 <__bad_interrupt>
  c8:	0c 94 94 00 	jmp	0x128	; 0x128 <__bad_interrupt>
  cc:	0c 94 94 00 	jmp	0x128	; 0x128 <__bad_interrupt>
  d0:	0c 94 94 00 	jmp	0x128	; 0x128 <__bad_interrupt>
  d4:	0c 94 94 00 	jmp	0x128	; 0x128 <__bad_interrupt>
  d8:	0c 94 94 00 	jmp	0x128	; 0x128 <__bad_interrupt>
  dc:	0c 94 94 00 	jmp	0x128	; 0x128 <__bad_interrupt>
  e0:	0c 94 94 00 	jmp	0x128	; 0x128 <__bad_interrupt>

000000e4 <__ctors_end>:
  e4:	11 24       	eor	r1, r1
  e6:	1f be       	out	0x3f, r1	; 63
  e8:	cf ef       	ldi	r28, 0xFF	; 255
  ea:	d1 e2       	ldi	r29, 0x21	; 33
  ec:	de bf       	out	0x3e, r29	; 62
  ee:	cd bf       	out	0x3d, r28	; 61
  f0:	00 e0       	ldi	r16, 0x00	; 0
  f2:	0c bf       	out	0x3c, r16	; 60

000000f4 <__do_copy_data>:
  f4:	12 e0       	ldi	r17, 0x02	; 2
  f6:	a0 e0       	ldi	r26, 0x00	; 0
  f8:	b2 e0       	ldi	r27, 0x02	; 2
  fa:	ea e1       	ldi	r30, 0x1A	; 26
  fc:	fe e0       	ldi	r31, 0x0E	; 14
  fe:	00 e0       	ldi	r16, 0x00	; 0
 100:	0b bf       	out	0x3b, r16	; 59
 102:	02 c0       	rjmp	.+4      	; 0x108 <__do_copy_data+0x14>
 104:	07 90       	elpm	r0, Z+
 106:	0d 92       	st	X+, r0
 108:	a0 35       	cpi	r26, 0x50	; 80
 10a:	b1 07       	cpc	r27, r17
 10c:	d9 f7       	brne	.-10     	; 0x104 <__do_copy_data+0x10>
 10e:	1b be       	out	0x3b, r1	; 59

00000110 <__do_clear_bss>:
 110:	12 e0       	ldi	r17, 0x02	; 2
 112:	a0 e5       	ldi	r26, 0x50	; 80
 114:	b2 e0       	ldi	r27, 0x02	; 2
 116:	01 c0       	rjmp	.+2      	; 0x11a <.do_clear_bss_start>

00000118 <.do_clear_bss_loop>:
 118:	1d 92       	st	X+, r1

0000011a <.do_clear_bss_start>:
 11a:	a7 39       	cpi	r26, 0x97	; 151
 11c:	b1 07       	cpc	r27, r17
 11e:	e1 f7       	brne	.-8      	; 0x118 <.do_clear_bss_loop>
 120:	0e 94 d5 03 	call	0x7aa	; 0x7aa <main>
 124:	0c 94 0b 07 	jmp	0xe16	; 0xe16 <_exit>

00000128 <__bad_interrupt>:
 128:	0c 94 00 00 	jmp	0	; 0x0 <__vectors>

0000012c <checkStatus>:
 */ 
#include <avr/io.h>
#include "DE2.h"

char checkStatus(){
	if((PIND & 1<<1))
 12c:	49 9b       	sbis	0x09, 1	; 9
 12e:	02 c0       	rjmp	.+4      	; 0x134 <checkStatus+0x8>
	return 'L';
 130:	8c e4       	ldi	r24, 0x4C	; 76
 132:	08 95       	ret
	else
	return 'O';
 134:	8f e4       	ldi	r24, 0x4F	; 79
}
 136:	08 95       	ret

00000138 <getStatus>:
	EIMSK |= 0b00000010;
	EICRA |= 0b00000100; // any edge triggered
	setStatus(checkStatus());
}
char getStatus(){
	return status;
 138:	80 91 50 02 	lds	r24, 0x0250
}
 13c:	08 95       	ret

0000013e <setStatus>:
void setStatus(char s){
	status = s;
 13e:	80 93 50 02 	sts	0x0250, r24
}
 142:	08 95       	ret

00000144 <initINT1>:
	return 'L';
	else
	return 'O';
}
void initINT1(){
	DDRD &= 0b11111101;
 144:	51 98       	cbi	0x0a, 1	; 10
	EIMSK |= 0b00000010;
 146:	e9 9a       	sbi	0x1d, 1	; 29
	EICRA |= 0b00000100; // any edge triggered
 148:	e9 e6       	ldi	r30, 0x69	; 105
 14a:	f0 e0       	ldi	r31, 0x00	; 0
 14c:	80 81       	ld	r24, Z
 14e:	84 60       	ori	r24, 0x04	; 4
 150:	80 83       	st	Z, r24
	setStatus(checkStatus());
 152:	0e 94 96 00 	call	0x12c	; 0x12c <checkStatus>
 156:	0e 94 9f 00 	call	0x13e	; 0x13e <setStatus>
}
 15a:	08 95       	ret

0000015c <disableINT1>:
}
void setStatus(char s){
	status = s;
}
void disableINT1(){
	EIMSK &= 0b11111101;
 15c:	e9 98       	cbi	0x1d, 1	; 29
	EICRA &= 0b11111011;
 15e:	e9 e6       	ldi	r30, 0x69	; 105
 160:	f0 e0       	ldi	r31, 0x00	; 0
 162:	80 81       	ld	r24, Z
 164:	8b 7f       	andi	r24, 0xFB	; 251
 166:	80 83       	st	Z, r24
 168:	08 95       	ret

0000016a <initLEDport>:
#define MAX_LED_NR 7
#include "led.h"
void initLEDport()
{
  // Sæt alle PORTB's ben til at være udgange
  DDRB = 0xFF;
 16a:	8f ef       	ldi	r24, 0xFF	; 255
 16c:	84 b9       	out	0x04, r24	; 4
  // Sluk alle lysdioderne
  PORTB = 0;
 16e:	15 b8       	out	0x05, r1	; 5
}
 170:	08 95       	ret

00000172 <writeAllLEDs>:

void writeAllLEDs(unsigned char pattern)
{
  // Hent parameteren og skriv til lysdioderne
  PORTB |= pattern;   
 172:	95 b1       	in	r25, 0x05	; 5
 174:	89 2b       	or	r24, r25
 176:	85 b9       	out	0x05, r24	; 5
}
 178:	08 95       	ret

0000017a <turnOnLED>:
void turnOnLED(unsigned char led_nr)
{
// Lokal variabel
unsigned char mask;
  // Vi skal kun lave noget, hvis led_nr < 8
  if (led_nr <= MAX_LED_NR)
 17a:	88 30       	cpi	r24, 0x08	; 8
 17c:	60 f4       	brcc	.+24     	; 0x196 <turnOnLED+0x1c>
  {
    // Dan maske på basis af parameteren (led_nr)
    mask = 0b00000001 << led_nr;
    // Tænd den aktuelle lysdiode (de andre ændres ikke)
    PORTB = PINB | mask;
 17e:	43 b1       	in	r20, 0x03	; 3
unsigned char mask;
  // Vi skal kun lave noget, hvis led_nr < 8
  if (led_nr <= MAX_LED_NR)
  {
    // Dan maske på basis af parameteren (led_nr)
    mask = 0b00000001 << led_nr;
 180:	21 e0       	ldi	r18, 0x01	; 1
 182:	30 e0       	ldi	r19, 0x00	; 0
 184:	b9 01       	movw	r22, r18
 186:	02 c0       	rjmp	.+4      	; 0x18c <turnOnLED+0x12>
 188:	66 0f       	add	r22, r22
 18a:	77 1f       	adc	r23, r23
 18c:	8a 95       	dec	r24
 18e:	e2 f7       	brpl	.-8      	; 0x188 <turnOnLED+0xe>
 190:	cb 01       	movw	r24, r22
    // Tænd den aktuelle lysdiode (de andre ændres ikke)
    PORTB = PINB | mask;
 192:	84 2b       	or	r24, r20
 194:	85 b9       	out	0x05, r24	; 5
 196:	08 95       	ret

00000198 <turnOffLED>:
void turnOffLED(unsigned char led_nr)
{
  // Lokal variabel
  unsigned char mask;
  // Vi skal kun lave noget, hvis led_nr < 8
  if (led_nr <= MAX_LED_NR)
 198:	88 30       	cpi	r24, 0x08	; 8
 19a:	68 f4       	brcc	.+26     	; 0x1b6 <turnOffLED+0x1e>
  {
	// Dan (inverteret) maske på basis af parameteren (led_nr)
    mask = ~(0b00000001 << led_nr);
    // Sluk den aktuelle lysdiode (de andre ændres ikke)
    PORTB = PINB & mask;
 19c:	43 b1       	in	r20, 0x03	; 3
  unsigned char mask;
  // Vi skal kun lave noget, hvis led_nr < 8
  if (led_nr <= MAX_LED_NR)
  {
	// Dan (inverteret) maske på basis af parameteren (led_nr)
    mask = ~(0b00000001 << led_nr);
 19e:	21 e0       	ldi	r18, 0x01	; 1
 1a0:	30 e0       	ldi	r19, 0x00	; 0
 1a2:	b9 01       	movw	r22, r18
 1a4:	02 c0       	rjmp	.+4      	; 0x1aa <turnOffLED+0x12>
 1a6:	66 0f       	add	r22, r22
 1a8:	77 1f       	adc	r23, r23
 1aa:	8a 95       	dec	r24
 1ac:	e2 f7       	brpl	.-8      	; 0x1a6 <turnOffLED+0xe>
 1ae:	cb 01       	movw	r24, r22
 1b0:	80 95       	com	r24
    // Sluk den aktuelle lysdiode (de andre ændres ikke)
    PORTB = PINB & mask;
 1b2:	84 23       	and	r24, r20
 1b4:	85 b9       	out	0x05, r24	; 5
 1b6:	08 95       	ret

000001b8 <toggleLED>:
void toggleLED(unsigned char led_nr)
{
  // Lokal variabel
  unsigned char mask;
  // Vi skal kun lave noget, hvis led_nr < 8
  if (led_nr <= MAX_LED_NR)
 1b8:	88 30       	cpi	r24, 0x08	; 8
 1ba:	60 f4       	brcc	.+24     	; 0x1d4 <toggleLED+0x1c>
  {
    // Dan maske på basis af parameteren (led_nr)
    mask = 0b00000001 << led_nr;
    // Toggle den aktuelle lysdiode (de andre ændres ikke)
    PORTB = PINB ^ mask;
 1bc:	43 b1       	in	r20, 0x03	; 3
  unsigned char mask;
  // Vi skal kun lave noget, hvis led_nr < 8
  if (led_nr <= MAX_LED_NR)
  {
    // Dan maske på basis af parameteren (led_nr)
    mask = 0b00000001 << led_nr;
 1be:	21 e0       	ldi	r18, 0x01	; 1
 1c0:	30 e0       	ldi	r19, 0x00	; 0
 1c2:	b9 01       	movw	r22, r18
 1c4:	02 c0       	rjmp	.+4      	; 0x1ca <toggleLED+0x12>
 1c6:	66 0f       	add	r22, r22
 1c8:	77 1f       	adc	r23, r23
 1ca:	8a 95       	dec	r24
 1cc:	e2 f7       	brpl	.-8      	; 0x1c6 <toggleLED+0xe>
 1ce:	cb 01       	movw	r24, r22
    // Toggle den aktuelle lysdiode (de andre ændres ikke)
    PORTB = PINB ^ mask;
 1d0:	84 27       	eor	r24, r20
 1d2:	85 b9       	out	0x05, r24	; 5
 1d4:	08 95       	ret

000001d6 <setup>:
	setReadIndex(0);
	setSend(0);
	initINT1();
}
void setup(){
	sei();
 1d6:	78 94       	sei
	initINT1();
 1d8:	0e 94 a2 00 	call	0x144	; 0x144 <initINT1>
}
 1dc:	08 95       	ret

000001de <setWait>:
void setWait(int w){
	wait= w;
 1de:	90 93 5a 02 	sts	0x025A, r25
 1e2:	80 93 59 02 	sts	0x0259, r24
}
 1e6:	08 95       	ret

000001e8 <getWait>:
int getWait(){
	return wait;
 1e8:	80 91 59 02 	lds	r24, 0x0259
 1ec:	90 91 5a 02 	lds	r25, 0x025A
}
 1f0:	08 95       	ret

000001f2 <getMode>:
void setMode(int m){
	mode = m;
	setIndex(0);
}
int getMode(){
	return mode;
 1f2:	80 91 55 02 	lds	r24, 0x0255
 1f6:	90 91 56 02 	lds	r25, 0x0256
}
 1fa:	08 95       	ret

000001fc <setSend>:
void setSend(int s){
	send = s;
 1fc:	90 93 54 02 	sts	0x0254, r25
 200:	80 93 53 02 	sts	0x0253, r24
}
 204:	08 95       	ret

00000206 <getSend>:
int getSend(){
	return send;
 206:	80 91 53 02 	lds	r24, 0x0253
 20a:	90 91 54 02 	lds	r25, 0x0254
}
 20e:	08 95       	ret

00000210 <setExit>:
void setExit(int e){
	exit1 = e;
 210:	90 93 58 02 	sts	0x0258, r25
 214:	80 93 57 02 	sts	0x0257, r24
}
 218:	08 95       	ret

0000021a <getExit>:
int getExit(){
	return exit1;
 21a:	80 91 57 02 	lds	r24, 0x0257
 21e:	90 91 58 02 	lds	r25, 0x0258
}
 222:	08 95       	ret

00000224 <setCycle>:
void setCycle(int c){
	cycle = c;
 224:	90 93 52 02 	sts	0x0252, r25
 228:	80 93 51 02 	sts	0x0251, r24
}
 22c:	08 95       	ret

0000022e <getCycle>:
int getCycle(){
	return cycle;
 22e:	80 91 51 02 	lds	r24, 0x0251
 232:	90 91 52 02 	lds	r25, 0x0252
}
 236:	08 95       	ret

00000238 <incCycle>:
void incCycle(){
	cycle++;
 238:	80 91 51 02 	lds	r24, 0x0251
 23c:	90 91 52 02 	lds	r25, 0x0252
 240:	01 96       	adiw	r24, 0x01	; 1
 242:	90 93 52 02 	sts	0x0252, r25
 246:	80 93 51 02 	sts	0x0251, r24
}
 24a:	08 95       	ret

0000024c <getIndex>:
int getIndex(){
	return index;
 24c:	80 91 5b 02 	lds	r24, 0x025B
 250:	90 91 5c 02 	lds	r25, 0x025C
}
 254:	08 95       	ret

00000256 <setIndex>:
void setIndex(int i){
	index = i;
 256:	90 93 5c 02 	sts	0x025C, r25
 25a:	80 93 5b 02 	sts	0x025B, r24
}
 25e:	08 95       	ret

00000260 <setMode>:
}
int getWait(){
	return wait;
}
void setMode(int m){
	mode = m;
 260:	90 93 56 02 	sts	0x0256, r25
 264:	80 93 55 02 	sts	0x0255, r24
	setIndex(0);
 268:	80 e0       	ldi	r24, 0x00	; 0
 26a:	90 e0       	ldi	r25, 0x00	; 0
 26c:	0e 94 2b 01 	call	0x256	; 0x256 <setIndex>
}
 270:	08 95       	ret

00000272 <reset>:
volatile int cycle;
volatile int send;
volatile int exit1;
volatile int wait;
void reset(){
	setMode(0);
 272:	80 e0       	ldi	r24, 0x00	; 0
 274:	90 e0       	ldi	r25, 0x00	; 0
 276:	0e 94 30 01 	call	0x260	; 0x260 <setMode>
	setCycle(0);
 27a:	80 e0       	ldi	r24, 0x00	; 0
 27c:	90 e0       	ldi	r25, 0x00	; 0
 27e:	0e 94 12 01 	call	0x224	; 0x224 <setCycle>
	setExit(0);
 282:	80 e0       	ldi	r24, 0x00	; 0
 284:	90 e0       	ldi	r25, 0x00	; 0
 286:	0e 94 08 01 	call	0x210	; 0x210 <setExit>
	setMessage(0);
 28a:	80 e0       	ldi	r24, 0x00	; 0
 28c:	90 e0       	ldi	r25, 0x00	; 0
 28e:	0e 94 3e 06 	call	0xc7c	; 0xc7c <setMessage>
	setReadIndex(0);
 292:	80 e0       	ldi	r24, 0x00	; 0
 294:	90 e0       	ldi	r25, 0x00	; 0
 296:	0e 94 39 06 	call	0xc72	; 0xc72 <setReadIndex>
	setSend(0);
 29a:	80 e0       	ldi	r24, 0x00	; 0
 29c:	90 e0       	ldi	r25, 0x00	; 0
 29e:	0e 94 fe 00 	call	0x1fc	; 0x1fc <setSend>
	initINT1();
 2a2:	0e 94 a2 00 	call	0x144	; 0x144 <initINT1>
}
 2a6:	08 95       	ret

000002a8 <endTransmission>:
		}
	}
}

void endTransmission(){
	disableINT0();// disable INT0
 2a8:	0e 94 6e 06 	call	0xcdc	; 0xcdc <disableINT0>
	stopTimer0();
 2ac:	0e 94 3b 05 	call	0xa76	; 0xa76 <stopTimer0>
	//stopTimer3();
}	
 2b0:	08 95       	ret

000002b2 <sendx10>:

int sendx10(int * x10address, int* x10command){
 2b2:	0f 93       	push	r16
 2b4:	1f 93       	push	r17
 2b6:	cf 93       	push	r28
 2b8:	df 93       	push	r29
 2ba:	ec 01       	movw	r28, r24
 2bc:	8b 01       	movw	r16, r22
	if(getMode() == 1) // sender startkode
 2be:	0e 94 f9 00 	call	0x1f2	; 0x1f2 <getMode>
 2c2:	81 30       	cpi	r24, 0x01	; 1
 2c4:	91 05       	cpc	r25, r1
 2c6:	c1 f5       	brne	.+112    	; 0x338 <sendx10+0x86>
	{
		switch(index){
 2c8:	80 91 5b 02 	lds	r24, 0x025B
 2cc:	90 91 5c 02 	lds	r25, 0x025C
 2d0:	81 30       	cpi	r24, 0x01	; 1
 2d2:	91 05       	cpc	r25, r1
 2d4:	c1 f0       	breq	.+48     	; 0x306 <sendx10+0x54>
 2d6:	82 30       	cpi	r24, 0x02	; 2
 2d8:	91 05       	cpc	r25, r1
 2da:	1c f4       	brge	.+6      	; 0x2e2 <sendx10+0x30>
 2dc:	00 97       	sbiw	r24, 0x00	; 0
 2de:	49 f0       	breq	.+18     	; 0x2f2 <sendx10+0x40>
 2e0:	94 c0       	rjmp	.+296    	; 0x40a <sendx10+0x158>
 2e2:	82 30       	cpi	r24, 0x02	; 2
 2e4:	91 05       	cpc	r25, r1
 2e6:	c9 f0       	breq	.+50     	; 0x31a <sendx10+0x68>
 2e8:	83 30       	cpi	r24, 0x03	; 3
 2ea:	91 05       	cpc	r25, r1
 2ec:	09 f0       	breq	.+2      	; 0x2f0 <sendx10+0x3e>
 2ee:	8d c0       	rjmp	.+282    	; 0x40a <sendx10+0x158>
 2f0:	1e c0       	rjmp	.+60     	; 0x32e <sendx10+0x7c>
			case 0:
			sendPWM(); // der sendes et 1 tal
 2f2:	0e 94 4e 05 	call	0xa9c	; 0xa9c <sendPWM>
			setIndex(index +1);
 2f6:	80 91 5b 02 	lds	r24, 0x025B
 2fa:	90 91 5c 02 	lds	r25, 0x025C
 2fe:	01 96       	adiw	r24, 0x01	; 1
 300:	0e 94 2b 01 	call	0x256	; 0x256 <setIndex>
			break;
 304:	82 c0       	rjmp	.+260    	; 0x40a <sendx10+0x158>
			case 1:
			sendPWM();
 306:	0e 94 4e 05 	call	0xa9c	; 0xa9c <sendPWM>
			setIndex(index +1);
 30a:	80 91 5b 02 	lds	r24, 0x025B
 30e:	90 91 5c 02 	lds	r25, 0x025C
 312:	01 96       	adiw	r24, 0x01	; 1
 314:	0e 94 2b 01 	call	0x256	; 0x256 <setIndex>
			break;
 318:	78 c0       	rjmp	.+240    	; 0x40a <sendx10+0x158>
			case 2:
			sendPWM();
 31a:	0e 94 4e 05 	call	0xa9c	; 0xa9c <sendPWM>
			setIndex(index +1);
 31e:	80 91 5b 02 	lds	r24, 0x025B
 322:	90 91 5c 02 	lds	r25, 0x025C
 326:	01 96       	adiw	r24, 0x01	; 1
 328:	0e 94 2b 01 	call	0x256	; 0x256 <setIndex>
			break;
 32c:	6e c0       	rjmp	.+220    	; 0x40a <sendx10+0x158>
			case 3:
			setMode(2);
 32e:	82 e0       	ldi	r24, 0x02	; 2
 330:	90 e0       	ldi	r25, 0x00	; 0
 332:	0e 94 30 01 	call	0x260	; 0x260 <setMode>
			break;
 336:	69 c0       	rjmp	.+210    	; 0x40a <sendx10+0x158>
		}
	}
	else if(getMode() == 2 || getMode() == 3){
 338:	0e 94 f9 00 	call	0x1f2	; 0x1f2 <getMode>
 33c:	82 30       	cpi	r24, 0x02	; 2
 33e:	91 05       	cpc	r25, r1
 340:	31 f0       	breq	.+12     	; 0x34e <sendx10+0x9c>
 342:	0e 94 f9 00 	call	0x1f2	; 0x1f2 <getMode>
 346:	83 30       	cpi	r24, 0x03	; 3
 348:	91 05       	cpc	r25, r1
 34a:	09 f0       	breq	.+2      	; 0x34e <sendx10+0x9c>
 34c:	5e c0       	rjmp	.+188    	; 0x40a <sendx10+0x158>
			disableINT0();
 34e:	0e 94 6e 06 	call	0xcdc	; 0xcdc <disableINT0>
			initTimer0();
 352:	0e 94 30 05 	call	0xa60	; 0xa60 <initTimer0>
		if(getMode() == 2) // sender addresse kode
 356:	0e 94 f9 00 	call	0x1f2	; 0x1f2 <getMode>
 35a:	82 30       	cpi	r24, 0x02	; 2
 35c:	91 05       	cpc	r25, r1
 35e:	41 f5       	brne	.+80     	; 0x3b0 <sendx10+0xfe>
		{
			if(x10address[index] == 1){
 360:	80 91 5b 02 	lds	r24, 0x025B
 364:	90 91 5c 02 	lds	r25, 0x025C
 368:	88 0f       	add	r24, r24
 36a:	99 1f       	adc	r25, r25
 36c:	c8 0f       	add	r28, r24
 36e:	d9 1f       	adc	r29, r25
 370:	88 81       	ld	r24, Y
 372:	99 81       	ldd	r25, Y+1	; 0x01
 374:	81 30       	cpi	r24, 0x01	; 1
 376:	91 05       	cpc	r25, r1
 378:	51 f4       	brne	.+20     	; 0x38e <sendx10+0xdc>
				sendPWM();
 37a:	0e 94 4e 05 	call	0xa9c	; 0xa9c <sendPWM>
				setIndex(index +1);
 37e:	80 91 5b 02 	lds	r24, 0x025B
 382:	90 91 5c 02 	lds	r25, 0x025C
 386:	01 96       	adiw	r24, 0x01	; 1
 388:	0e 94 2b 01 	call	0x256	; 0x256 <setIndex>
 38c:	07 c0       	rjmp	.+14     	; 0x39c <sendx10+0xea>
			}
			else {
				setIndex(index +1);
 38e:	80 91 5b 02 	lds	r24, 0x025B
 392:	90 91 5c 02 	lds	r25, 0x025C
 396:	01 96       	adiw	r24, 0x01	; 1
 398:	0e 94 2b 01 	call	0x256	; 0x256 <setIndex>
			}
			if(getIndex() == 8){
 39c:	0e 94 26 01 	call	0x24c	; 0x24c <getIndex>
 3a0:	88 30       	cpi	r24, 0x08	; 8
 3a2:	91 05       	cpc	r25, r1
 3a4:	91 f5       	brne	.+100    	; 0x40a <sendx10+0x158>
				setMode(3);
 3a6:	83 e0       	ldi	r24, 0x03	; 3
 3a8:	90 e0       	ldi	r25, 0x00	; 0
 3aa:	0e 94 30 01 	call	0x260	; 0x260 <setMode>
 3ae:	2d c0       	rjmp	.+90     	; 0x40a <sendx10+0x158>
			}

		}
		else if(getMode() == 3){
 3b0:	0e 94 f9 00 	call	0x1f2	; 0x1f2 <getMode>
 3b4:	83 30       	cpi	r24, 0x03	; 3
 3b6:	91 05       	cpc	r25, r1
 3b8:	41 f5       	brne	.+80     	; 0x40a <sendx10+0x158>
			if(x10command[index] == 1){
 3ba:	80 91 5b 02 	lds	r24, 0x025B
 3be:	90 91 5c 02 	lds	r25, 0x025C
 3c2:	88 0f       	add	r24, r24
 3c4:	99 1f       	adc	r25, r25
 3c6:	08 0f       	add	r16, r24
 3c8:	19 1f       	adc	r17, r25
 3ca:	f8 01       	movw	r30, r16
 3cc:	80 81       	ld	r24, Z
 3ce:	91 81       	ldd	r25, Z+1	; 0x01
 3d0:	81 30       	cpi	r24, 0x01	; 1
 3d2:	91 05       	cpc	r25, r1
 3d4:	51 f4       	brne	.+20     	; 0x3ea <sendx10+0x138>
				sendPWM();
 3d6:	0e 94 4e 05 	call	0xa9c	; 0xa9c <sendPWM>
				setIndex(index +1);
 3da:	80 91 5b 02 	lds	r24, 0x025B
 3de:	90 91 5c 02 	lds	r25, 0x025C
 3e2:	01 96       	adiw	r24, 0x01	; 1
 3e4:	0e 94 2b 01 	call	0x256	; 0x256 <setIndex>
 3e8:	07 c0       	rjmp	.+14     	; 0x3f8 <sendx10+0x146>
			}
			else{
				setIndex(index +1);
 3ea:	80 91 5b 02 	lds	r24, 0x025B
 3ee:	90 91 5c 02 	lds	r25, 0x025C
 3f2:	01 96       	adiw	r24, 0x01	; 1
 3f4:	0e 94 2b 01 	call	0x256	; 0x256 <setIndex>
			}
			if(getIndex() == 8){
 3f8:	0e 94 26 01 	call	0x24c	; 0x24c <getIndex>
 3fc:	88 30       	cpi	r24, 0x08	; 8
 3fe:	91 05       	cpc	r25, r1
 400:	21 f4       	brne	.+8      	; 0x40a <sendx10+0x158>
				setMode(0);
 402:	80 e0       	ldi	r24, 0x00	; 0
 404:	90 e0       	ldi	r25, 0x00	; 0
 406:	0e 94 30 01 	call	0x260	; 0x260 <setMode>
			}
		}
		
		}
	if(getMode() == 0){
 40a:	0e 94 f9 00 	call	0x1f2	; 0x1f2 <getMode>
 40e:	00 97       	sbiw	r24, 0x00	; 0
 410:	91 f4       	brne	.+36     	; 0x436 <sendx10+0x184>
		setSend(0);
 412:	80 e0       	ldi	r24, 0x00	; 0
 414:	90 e0       	ldi	r25, 0x00	; 0
 416:	0e 94 fe 00 	call	0x1fc	; 0x1fc <setSend>
		stopTimer0();
 41a:	0e 94 3b 05 	call	0xa76	; 0xa76 <stopTimer0>
		incCycle();
 41e:	0e 94 1c 01 	call	0x238	; 0x238 <incCycle>
		setWait(1);
 422:	81 e0       	ldi	r24, 0x01	; 1
 424:	90 e0       	ldi	r25, 0x00	; 0
 426:	0e 94 ef 00 	call	0x1de	; 0x1de <setWait>
		setMode(1);
 42a:	81 e0       	ldi	r24, 0x01	; 1
 42c:	90 e0       	ldi	r25, 0x00	; 0
 42e:	0e 94 30 01 	call	0x260	; 0x260 <setMode>
		initINT0();
 432:	0e 94 66 06 	call	0xccc	; 0xccc <initINT0>
	}
	return 1;
}
 436:	81 e0       	ldi	r24, 0x01	; 1
 438:	90 e0       	ldi	r25, 0x00	; 0
 43a:	df 91       	pop	r29
 43c:	cf 91       	pop	r28
 43e:	1f 91       	pop	r17
 440:	0f 91       	pop	r16
 442:	08 95       	ret

00000444 <startTransmission>:
	return index;
}
void setIndex(int i){
	index = i;
}
void startTransmission(int* x10add,int * x10com){
 444:	0f 93       	push	r16
 446:	1f 93       	push	r17
 448:	cf 93       	push	r28
 44a:	df 93       	push	r29
 44c:	ec 01       	movw	r28, r24
 44e:	8b 01       	movw	r16, r22
	setWait(1);
 450:	81 e0       	ldi	r24, 0x01	; 1
 452:	90 e0       	ldi	r25, 0x00	; 0
 454:	0e 94 ef 00 	call	0x1de	; 0x1de <setWait>
	initINT0();
 458:	0e 94 66 06 	call	0xccc	; 0xccc <initINT0>
	setCounterTimer(0);
 45c:	80 e0       	ldi	r24, 0x00	; 0
 45e:	90 e0       	ldi	r25, 0x00	; 0
 460:	0e 94 9a 06 	call	0xd34	; 0xd34 <setCounterTimer>
	// initiering af x.10 sender sekvens
	DDRB |= 0b00100000; // PB5 sættes som udgang
 464:	25 9a       	sbi	0x04, 5	; 4
	setMode(1);
 466:	81 e0       	ldi	r24, 0x01	; 1
 468:	90 e0       	ldi	r25, 0x00	; 0
 46a:	0e 94 30 01 	call	0x260	; 0x260 <setMode>
	while(getExit() == 0){
 46e:	20 c0       	rjmp	.+64     	; 0x4b0 <startTransmission+0x6c>
		if(getCycle() < 3){
 470:	0e 94 17 01 	call	0x22e	; 0x22e <getCycle>
 474:	83 30       	cpi	r24, 0x03	; 3
 476:	91 05       	cpc	r25, r1
 478:	84 f4       	brge	.+32     	; 0x49a <startTransmission+0x56>
			if(getSend() == 1){
 47a:	0e 94 03 01 	call	0x206	; 0x206 <getSend>
 47e:	81 30       	cpi	r24, 0x01	; 1
 480:	91 05       	cpc	r25, r1
 482:	b1 f4       	brne	.+44     	; 0x4b0 <startTransmission+0x6c>
			while(sendx10(x10add,x10com) == 0){}
 484:	ce 01       	movw	r24, r28
 486:	b8 01       	movw	r22, r16
 488:	0e 94 59 01 	call	0x2b2	; 0x2b2 <sendx10>
 48c:	00 97       	sbiw	r24, 0x00	; 0
 48e:	d1 f3       	breq	.-12     	; 0x484 <startTransmission+0x40>
			setSend(0);
 490:	80 e0       	ldi	r24, 0x00	; 0
 492:	90 e0       	ldi	r25, 0x00	; 0
 494:	0e 94 fe 00 	call	0x1fc	; 0x1fc <setSend>
 498:	0b c0       	rjmp	.+22     	; 0x4b0 <startTransmission+0x6c>
		}
	}
		else if(getCycle() >= 3){
 49a:	0e 94 17 01 	call	0x22e	; 0x22e <getCycle>
 49e:	83 30       	cpi	r24, 0x03	; 3
 4a0:	91 05       	cpc	r25, r1
 4a2:	34 f0       	brlt	.+12     	; 0x4b0 <startTransmission+0x6c>
			endTransmission();
 4a4:	0e 94 54 01 	call	0x2a8	; 0x2a8 <endTransmission>
			setExit(1);
 4a8:	81 e0       	ldi	r24, 0x01	; 1
 4aa:	90 e0       	ldi	r25, 0x00	; 0
 4ac:	0e 94 08 01 	call	0x210	; 0x210 <setExit>
	initINT0();
	setCounterTimer(0);
	// initiering af x.10 sender sekvens
	DDRB |= 0b00100000; // PB5 sættes som udgang
	setMode(1);
	while(getExit() == 0){
 4b0:	0e 94 0d 01 	call	0x21a	; 0x21a <getExit>
 4b4:	00 97       	sbiw	r24, 0x00	; 0
 4b6:	e1 f2       	breq	.-72     	; 0x470 <startTransmission+0x2c>
		else if(getCycle() >= 3){
			endTransmission();
			setExit(1);
		}
	}
}
 4b8:	df 91       	pop	r29
 4ba:	cf 91       	pop	r28
 4bc:	1f 91       	pop	r17
 4be:	0f 91       	pop	r16
 4c0:	08 95       	ret

000004c2 <encodeBIN>:
		encodeBIN("1111", destination, length);
	}
}

void encodeBIN(const char * convert, int * dest, int length) {
	for (int i = 0; i< length; i++) {
 4c2:	14 16       	cp	r1, r20
 4c4:	15 06       	cpc	r1, r21
 4c6:	ac f4       	brge	.+42     	; 0x4f2 <encodeBIN+0x30>
 4c8:	a8 2f       	mov	r26, r24
 4ca:	b9 2f       	mov	r27, r25
 4cc:	e6 2f       	mov	r30, r22
 4ce:	f7 2f       	mov	r31, r23
 4d0:	80 e0       	ldi	r24, 0x00	; 0
 4d2:	90 e0       	ldi	r25, 0x00	; 0
		if (convert[i] == '1')
		dest[i] = 1;
 4d4:	21 e0       	ldi	r18, 0x01	; 1
 4d6:	30 e0       	ldi	r19, 0x00	; 0
	}
}

void encodeBIN(const char * convert, int * dest, int length) {
	for (int i = 0; i< length; i++) {
		if (convert[i] == '1')
 4d8:	6d 91       	ld	r22, X+
 4da:	61 33       	cpi	r22, 0x31	; 49
 4dc:	19 f4       	brne	.+6      	; 0x4e4 <encodeBIN+0x22>
		dest[i] = 1;
 4de:	31 83       	std	Z+1, r19	; 0x01
 4e0:	20 83       	st	Z, r18
 4e2:	02 c0       	rjmp	.+4      	; 0x4e8 <encodeBIN+0x26>
		else
		dest[i] = 0;
 4e4:	11 82       	std	Z+1, r1	; 0x01
 4e6:	10 82       	st	Z, r1
		encodeBIN("1111", destination, length);
	}
}

void encodeBIN(const char * convert, int * dest, int length) {
	for (int i = 0; i< length; i++) {
 4e8:	01 96       	adiw	r24, 0x01	; 1
 4ea:	32 96       	adiw	r30, 0x02	; 2
 4ec:	84 17       	cp	r24, r20
 4ee:	95 07       	cpc	r25, r21
 4f0:	99 f7       	brne	.-26     	; 0x4d8 <encodeBIN+0x16>
 4f2:	08 95       	ret

000004f4 <encodeCommand>:
	else if (source[0] == '1' && source[1] == '5') {
		encodeBIN("1111", destination, length);
	}
}

void encodeCommand(const char * source, int * destination, int length) {
 4f4:	fc 01       	movw	r30, r24
	if (source[2] == '0' && source[3] == '0') {
 4f6:	82 81       	ldd	r24, Z+2	; 0x02
 4f8:	80 33       	cpi	r24, 0x30	; 48
 4fa:	09 f0       	breq	.+2      	; 0x4fe <encodeCommand+0xa>
 4fc:	47 c0       	rjmp	.+142    	; 0x58c <encodeCommand+0x98>
 4fe:	83 81       	ldd	r24, Z+3	; 0x03
 500:	80 33       	cpi	r24, 0x30	; 48
 502:	29 f4       	brne	.+10     	; 0x50e <encodeCommand+0x1a>
		encodeBIN("0000", destination, length);
 504:	80 e0       	ldi	r24, 0x00	; 0
 506:	92 e0       	ldi	r25, 0x02	; 2
 508:	0e 94 61 02 	call	0x4c2	; 0x4c2 <encodeBIN>
 50c:	08 95       	ret
	}
	else if (source[2] == '0' && source[3] == '1') {
 50e:	81 33       	cpi	r24, 0x31	; 49
 510:	29 f4       	brne	.+10     	; 0x51c <encodeCommand+0x28>
		encodeBIN("0001", destination, length);
 512:	85 e0       	ldi	r24, 0x05	; 5
 514:	92 e0       	ldi	r25, 0x02	; 2
 516:	0e 94 61 02 	call	0x4c2	; 0x4c2 <encodeBIN>
 51a:	08 95       	ret
	}
	else if (source[2] == '0' && source[3] == '2') {
 51c:	82 33       	cpi	r24, 0x32	; 50
 51e:	29 f4       	brne	.+10     	; 0x52a <encodeCommand+0x36>
		encodeBIN("0010", destination, length);
 520:	8a e0       	ldi	r24, 0x0A	; 10
 522:	92 e0       	ldi	r25, 0x02	; 2
 524:	0e 94 61 02 	call	0x4c2	; 0x4c2 <encodeBIN>
 528:	08 95       	ret
	}
	else if (source[2] == '0' && source[3] == '3') {
 52a:	83 33       	cpi	r24, 0x33	; 51
 52c:	29 f4       	brne	.+10     	; 0x538 <encodeCommand+0x44>
		encodeBIN("0011", destination, length);
 52e:	8f e0       	ldi	r24, 0x0F	; 15
 530:	92 e0       	ldi	r25, 0x02	; 2
 532:	0e 94 61 02 	call	0x4c2	; 0x4c2 <encodeBIN>
 536:	08 95       	ret
	}
	else if (source[2] == '0' && source[3] == '4') {
 538:	84 33       	cpi	r24, 0x34	; 52
 53a:	29 f4       	brne	.+10     	; 0x546 <encodeCommand+0x52>
		encodeBIN("0100", destination, length);
 53c:	84 e1       	ldi	r24, 0x14	; 20
 53e:	92 e0       	ldi	r25, 0x02	; 2
 540:	0e 94 61 02 	call	0x4c2	; 0x4c2 <encodeBIN>
 544:	08 95       	ret
	}
	else if (source[2] == '0' && source[3] == '5') {
 546:	85 33       	cpi	r24, 0x35	; 53
 548:	29 f4       	brne	.+10     	; 0x554 <encodeCommand+0x60>
		encodeBIN("0101", destination, length);
 54a:	89 e1       	ldi	r24, 0x19	; 25
 54c:	92 e0       	ldi	r25, 0x02	; 2
 54e:	0e 94 61 02 	call	0x4c2	; 0x4c2 <encodeBIN>
 552:	08 95       	ret
	}
	else if (source[2] == '0' && source[3] == '6') {
 554:	86 33       	cpi	r24, 0x36	; 54
 556:	29 f4       	brne	.+10     	; 0x562 <encodeCommand+0x6e>
		encodeBIN("0110", destination, length);
 558:	8e e1       	ldi	r24, 0x1E	; 30
 55a:	92 e0       	ldi	r25, 0x02	; 2
 55c:	0e 94 61 02 	call	0x4c2	; 0x4c2 <encodeBIN>
 560:	08 95       	ret
	}
	else if (source[2] == '0' && source[3] == '7') {
 562:	87 33       	cpi	r24, 0x37	; 55
 564:	29 f4       	brne	.+10     	; 0x570 <encodeCommand+0x7c>
		encodeBIN("0111", destination, length);
 566:	83 e2       	ldi	r24, 0x23	; 35
 568:	92 e0       	ldi	r25, 0x02	; 2
 56a:	0e 94 61 02 	call	0x4c2	; 0x4c2 <encodeBIN>
 56e:	08 95       	ret
	}
	else if (source[2] == '0' && source[3] == '8') {
 570:	88 33       	cpi	r24, 0x38	; 56
 572:	29 f4       	brne	.+10     	; 0x57e <encodeCommand+0x8a>
		encodeBIN("1000", destination, length);
 574:	88 e2       	ldi	r24, 0x28	; 40
 576:	92 e0       	ldi	r25, 0x02	; 2
 578:	0e 94 61 02 	call	0x4c2	; 0x4c2 <encodeBIN>
 57c:	08 95       	ret
	}
	else if (source[2] == '0' && source[3] == '9') {
 57e:	89 33       	cpi	r24, 0x39	; 57
 580:	89 f5       	brne	.+98     	; 0x5e4 <encodeCommand+0xf0>
		encodeBIN("1001", destination, length);
 582:	8d e2       	ldi	r24, 0x2D	; 45
 584:	92 e0       	ldi	r25, 0x02	; 2
 586:	0e 94 61 02 	call	0x4c2	; 0x4c2 <encodeBIN>
 58a:	08 95       	ret
	}
	else if (source[2] == '1' && source[3] == '0') {
 58c:	81 33       	cpi	r24, 0x31	; 49
 58e:	51 f5       	brne	.+84     	; 0x5e4 <encodeCommand+0xf0>
 590:	83 81       	ldd	r24, Z+3	; 0x03
 592:	80 33       	cpi	r24, 0x30	; 48
 594:	29 f4       	brne	.+10     	; 0x5a0 <encodeCommand+0xac>
		encodeBIN("1010", destination, length);
 596:	82 e3       	ldi	r24, 0x32	; 50
 598:	92 e0       	ldi	r25, 0x02	; 2
 59a:	0e 94 61 02 	call	0x4c2	; 0x4c2 <encodeBIN>
 59e:	08 95       	ret
	}
	else if (source[2] == '1' && source[3] == '1') {
 5a0:	81 33       	cpi	r24, 0x31	; 49
 5a2:	29 f4       	brne	.+10     	; 0x5ae <encodeCommand+0xba>
		encodeBIN("1011", destination, length);
 5a4:	87 e3       	ldi	r24, 0x37	; 55
 5a6:	92 e0       	ldi	r25, 0x02	; 2
 5a8:	0e 94 61 02 	call	0x4c2	; 0x4c2 <encodeBIN>
 5ac:	08 95       	ret
	}
	else if (source[2] == '1' && source[3] == '2') {
 5ae:	82 33       	cpi	r24, 0x32	; 50
 5b0:	29 f4       	brne	.+10     	; 0x5bc <encodeCommand+0xc8>
		encodeBIN("1100", destination, length);
 5b2:	8c e3       	ldi	r24, 0x3C	; 60
 5b4:	92 e0       	ldi	r25, 0x02	; 2
 5b6:	0e 94 61 02 	call	0x4c2	; 0x4c2 <encodeBIN>
 5ba:	08 95       	ret
	}
	else if (source[2] == '1' && source[3] == '3') {
 5bc:	83 33       	cpi	r24, 0x33	; 51
 5be:	29 f4       	brne	.+10     	; 0x5ca <encodeCommand+0xd6>
		encodeBIN("1101", destination, length);
 5c0:	81 e4       	ldi	r24, 0x41	; 65
 5c2:	92 e0       	ldi	r25, 0x02	; 2
 5c4:	0e 94 61 02 	call	0x4c2	; 0x4c2 <encodeBIN>
 5c8:	08 95       	ret
	}
	else if (source[2] == '1' && source[3] == '4') {
 5ca:	84 33       	cpi	r24, 0x34	; 52
 5cc:	29 f4       	brne	.+10     	; 0x5d8 <encodeCommand+0xe4>
		encodeBIN("1110", destination, length);
 5ce:	86 e4       	ldi	r24, 0x46	; 70
 5d0:	92 e0       	ldi	r25, 0x02	; 2
 5d2:	0e 94 61 02 	call	0x4c2	; 0x4c2 <encodeBIN>
 5d6:	08 95       	ret
	}
	else if (source[2] == '1' && source[3] == '5') {
 5d8:	85 33       	cpi	r24, 0x35	; 53
 5da:	21 f4       	brne	.+8      	; 0x5e4 <encodeCommand+0xf0>
		encodeBIN("1111", destination, length);
 5dc:	8b e4       	ldi	r24, 0x4B	; 75
 5de:	92 e0       	ldi	r25, 0x02	; 2
 5e0:	0e 94 61 02 	call	0x4c2	; 0x4c2 <encodeBIN>
 5e4:	08 95       	ret

000005e6 <encodeAddress>:
	encodeCommand(source, command_dest, command_length);
	x10encode(address_dest, command_dest,x10add,x10com);
}


void encodeAddress(const char * source, int * destination, int length) {
 5e6:	fc 01       	movw	r30, r24
	if (source[0] == '0' && source[1] == '0') {
 5e8:	80 81       	ld	r24, Z
 5ea:	80 33       	cpi	r24, 0x30	; 48
 5ec:	09 f0       	breq	.+2      	; 0x5f0 <encodeAddress+0xa>
 5ee:	47 c0       	rjmp	.+142    	; 0x67e <encodeAddress+0x98>
 5f0:	81 81       	ldd	r24, Z+1	; 0x01
 5f2:	80 33       	cpi	r24, 0x30	; 48
 5f4:	29 f4       	brne	.+10     	; 0x600 <encodeAddress+0x1a>
		encodeBIN("0000", destination, length);
 5f6:	80 e0       	ldi	r24, 0x00	; 0
 5f8:	92 e0       	ldi	r25, 0x02	; 2
 5fa:	0e 94 61 02 	call	0x4c2	; 0x4c2 <encodeBIN>
 5fe:	08 95       	ret
	}
	else if (source[0] == '0' && source[1] == '1') {
 600:	81 33       	cpi	r24, 0x31	; 49
 602:	29 f4       	brne	.+10     	; 0x60e <encodeAddress+0x28>
		encodeBIN("0001", destination, length);
 604:	85 e0       	ldi	r24, 0x05	; 5
 606:	92 e0       	ldi	r25, 0x02	; 2
 608:	0e 94 61 02 	call	0x4c2	; 0x4c2 <encodeBIN>
 60c:	08 95       	ret
	}
	else if (source[0] == '0' && source[1] == '2') {
 60e:	82 33       	cpi	r24, 0x32	; 50
 610:	29 f4       	brne	.+10     	; 0x61c <encodeAddress+0x36>
		encodeBIN("0010", destination, length);
 612:	8a e0       	ldi	r24, 0x0A	; 10
 614:	92 e0       	ldi	r25, 0x02	; 2
 616:	0e 94 61 02 	call	0x4c2	; 0x4c2 <encodeBIN>
 61a:	08 95       	ret
	}
	else if (source[0] == '0' && source[1] == '3') {
 61c:	83 33       	cpi	r24, 0x33	; 51
 61e:	29 f4       	brne	.+10     	; 0x62a <encodeAddress+0x44>
		encodeBIN("0011", destination, length);
 620:	8f e0       	ldi	r24, 0x0F	; 15
 622:	92 e0       	ldi	r25, 0x02	; 2
 624:	0e 94 61 02 	call	0x4c2	; 0x4c2 <encodeBIN>
 628:	08 95       	ret
	}
	else if (source[0] == '0' && source[1] == '4') {
 62a:	84 33       	cpi	r24, 0x34	; 52
 62c:	29 f4       	brne	.+10     	; 0x638 <encodeAddress+0x52>
		encodeBIN("0100", destination, length);
 62e:	84 e1       	ldi	r24, 0x14	; 20
 630:	92 e0       	ldi	r25, 0x02	; 2
 632:	0e 94 61 02 	call	0x4c2	; 0x4c2 <encodeBIN>
 636:	08 95       	ret
	}
	else if (source[0] == '0' && source[1] == '5') {
 638:	85 33       	cpi	r24, 0x35	; 53
 63a:	29 f4       	brne	.+10     	; 0x646 <encodeAddress+0x60>
		encodeBIN("0101", destination, length);
 63c:	89 e1       	ldi	r24, 0x19	; 25
 63e:	92 e0       	ldi	r25, 0x02	; 2
 640:	0e 94 61 02 	call	0x4c2	; 0x4c2 <encodeBIN>
 644:	08 95       	ret
	}
	else if (source[0] == '0' && source[1] == '6') {
 646:	86 33       	cpi	r24, 0x36	; 54
 648:	29 f4       	brne	.+10     	; 0x654 <encodeAddress+0x6e>
		encodeBIN("0110", destination, length);
 64a:	8e e1       	ldi	r24, 0x1E	; 30
 64c:	92 e0       	ldi	r25, 0x02	; 2
 64e:	0e 94 61 02 	call	0x4c2	; 0x4c2 <encodeBIN>
 652:	08 95       	ret
	}
	else if (source[0] == '0' && source[1] == '7') {
 654:	87 33       	cpi	r24, 0x37	; 55
 656:	29 f4       	brne	.+10     	; 0x662 <encodeAddress+0x7c>
		encodeBIN("0111", destination, length);
 658:	83 e2       	ldi	r24, 0x23	; 35
 65a:	92 e0       	ldi	r25, 0x02	; 2
 65c:	0e 94 61 02 	call	0x4c2	; 0x4c2 <encodeBIN>
 660:	08 95       	ret
	}
	else if (source[0] == '0' && source[1] == '8') {
 662:	88 33       	cpi	r24, 0x38	; 56
 664:	29 f4       	brne	.+10     	; 0x670 <encodeAddress+0x8a>
		encodeBIN("1000", destination, length);
 666:	88 e2       	ldi	r24, 0x28	; 40
 668:	92 e0       	ldi	r25, 0x02	; 2
 66a:	0e 94 61 02 	call	0x4c2	; 0x4c2 <encodeBIN>
 66e:	08 95       	ret
	}
	else if (source[0] == '0' && source[1] == '9') {
 670:	89 33       	cpi	r24, 0x39	; 57
 672:	89 f5       	brne	.+98     	; 0x6d6 <encodeAddress+0xf0>
		encodeBIN("1001", destination, length);
 674:	8d e2       	ldi	r24, 0x2D	; 45
 676:	92 e0       	ldi	r25, 0x02	; 2
 678:	0e 94 61 02 	call	0x4c2	; 0x4c2 <encodeBIN>
 67c:	08 95       	ret
	}
	else if (source[0] == '1' && source[1] == '0') {
 67e:	81 33       	cpi	r24, 0x31	; 49
 680:	51 f5       	brne	.+84     	; 0x6d6 <encodeAddress+0xf0>
 682:	81 81       	ldd	r24, Z+1	; 0x01
 684:	80 33       	cpi	r24, 0x30	; 48
 686:	29 f4       	brne	.+10     	; 0x692 <encodeAddress+0xac>
		encodeBIN("1010", destination, length);
 688:	82 e3       	ldi	r24, 0x32	; 50
 68a:	92 e0       	ldi	r25, 0x02	; 2
 68c:	0e 94 61 02 	call	0x4c2	; 0x4c2 <encodeBIN>
 690:	08 95       	ret
	}
	else if (source[0] == '1' && source[1] == '1') {
 692:	81 33       	cpi	r24, 0x31	; 49
 694:	29 f4       	brne	.+10     	; 0x6a0 <encodeAddress+0xba>
		encodeBIN("1011", destination, length);
 696:	87 e3       	ldi	r24, 0x37	; 55
 698:	92 e0       	ldi	r25, 0x02	; 2
 69a:	0e 94 61 02 	call	0x4c2	; 0x4c2 <encodeBIN>
 69e:	08 95       	ret
	}
	else if (source[0] == '1' && source[1] == '2') {
 6a0:	82 33       	cpi	r24, 0x32	; 50
 6a2:	29 f4       	brne	.+10     	; 0x6ae <encodeAddress+0xc8>
		encodeBIN("1100", destination, length);
 6a4:	8c e3       	ldi	r24, 0x3C	; 60
 6a6:	92 e0       	ldi	r25, 0x02	; 2
 6a8:	0e 94 61 02 	call	0x4c2	; 0x4c2 <encodeBIN>
 6ac:	08 95       	ret
	}
	else if (source[0] == '1' && source[1] == '3') {
 6ae:	83 33       	cpi	r24, 0x33	; 51
 6b0:	29 f4       	brne	.+10     	; 0x6bc <encodeAddress+0xd6>
		encodeBIN("1101", destination, length);
 6b2:	81 e4       	ldi	r24, 0x41	; 65
 6b4:	92 e0       	ldi	r25, 0x02	; 2
 6b6:	0e 94 61 02 	call	0x4c2	; 0x4c2 <encodeBIN>
 6ba:	08 95       	ret
	}
	else if (source[0] == '1' && source[1] == '4') {
 6bc:	84 33       	cpi	r24, 0x34	; 52
 6be:	29 f4       	brne	.+10     	; 0x6ca <encodeAddress+0xe4>
		encodeBIN("1110", destination, length);
 6c0:	86 e4       	ldi	r24, 0x46	; 70
 6c2:	92 e0       	ldi	r25, 0x02	; 2
 6c4:	0e 94 61 02 	call	0x4c2	; 0x4c2 <encodeBIN>
 6c8:	08 95       	ret
	}
	else if (source[0] == '1' && source[1] == '5') {
 6ca:	85 33       	cpi	r24, 0x35	; 53
 6cc:	21 f4       	brne	.+8      	; 0x6d6 <encodeAddress+0xf0>
		encodeBIN("1111", destination, length);
 6ce:	8b e4       	ldi	r24, 0x4B	; 75
 6d0:	92 e0       	ldi	r25, 0x02	; 2
 6d2:	0e 94 61 02 	call	0x4c2	; 0x4c2 <encodeBIN>
 6d6:	08 95       	ret

000006d8 <x10encode>:
		dest[i] = 1;
		else
		dest[i] = 0;
	}
}
void x10encode(int * adr, int * com,int * x10add,int * x10com) {	
 6d8:	cf 93       	push	r28
 6da:	df 93       	push	r29
 6dc:	c6 2f       	mov	r28, r22
 6de:	d2 2f       	mov	r29, r18
 6e0:	63 2f       	mov	r22, r19
	for (int i = 1; i < (ADDRESS_LENGTH)+1; i++) {
 6e2:	a8 2f       	mov	r26, r24
 6e4:	b9 2f       	mov	r27, r25
 6e6:	e4 2f       	mov	r30, r20
 6e8:	f5 2f       	mov	r31, r21
 6ea:	21 e0       	ldi	r18, 0x01	; 1
 6ec:	30 e0       	ldi	r19, 0x00	; 0
			x10add[(i * 2) - 2] = 1;
			x10add[(i * 2) - 1] = 0;
		}
		else {
			x10add[(i * 2) - 2] = 0;
			x10add[(i * 2) - 1] = 1;
 6ee:	41 e0       	ldi	r20, 0x01	; 1
 6f0:	50 e0       	ldi	r21, 0x00	; 0
		dest[i] = 0;
	}
}
void x10encode(int * adr, int * com,int * x10add,int * x10com) {	
	for (int i = 1; i < (ADDRESS_LENGTH)+1; i++) {
		if (adr[i-1] == 1) {
 6f2:	8d 91       	ld	r24, X+
 6f4:	9d 91       	ld	r25, X+
 6f6:	81 30       	cpi	r24, 0x01	; 1
 6f8:	91 05       	cpc	r25, r1
 6fa:	29 f4       	brne	.+10     	; 0x706 <x10encode+0x2e>
			x10add[(i * 2) - 2] = 1;
 6fc:	51 83       	std	Z+1, r21	; 0x01
 6fe:	40 83       	st	Z, r20
			x10add[(i * 2) - 1] = 0;
 700:	13 82       	std	Z+3, r1	; 0x03
 702:	12 82       	std	Z+2, r1	; 0x02
 704:	04 c0       	rjmp	.+8      	; 0x70e <x10encode+0x36>
		}
		else {
			x10add[(i * 2) - 2] = 0;
 706:	11 82       	std	Z+1, r1	; 0x01
 708:	10 82       	st	Z, r1
			x10add[(i * 2) - 1] = 1;
 70a:	53 83       	std	Z+3, r21	; 0x03
 70c:	42 83       	std	Z+2, r20	; 0x02
		else
		dest[i] = 0;
	}
}
void x10encode(int * adr, int * com,int * x10add,int * x10com) {	
	for (int i = 1; i < (ADDRESS_LENGTH)+1; i++) {
 70e:	2f 5f       	subi	r18, 0xFF	; 255
 710:	3f 4f       	sbci	r19, 0xFF	; 255
 712:	34 96       	adiw	r30, 0x04	; 4
 714:	25 30       	cpi	r18, 0x05	; 5
 716:	31 05       	cpc	r19, r1
 718:	61 f7       	brne	.-40     	; 0x6f2 <x10encode+0x1a>
 71a:	ac 2f       	mov	r26, r28
 71c:	b7 2f       	mov	r27, r23
 71e:	ed 2f       	mov	r30, r29
 720:	f6 2f       	mov	r31, r22
 722:	21 e0       	ldi	r18, 0x01	; 1
 724:	30 e0       	ldi	r19, 0x00	; 0
		x10com[(i * 2) - 2] = 1;
		x10com[(i * 2) - 1] = 0;
	}
	else {
		x10com[(i * 2) - 2] = 0;
		x10com[(i * 2) - 1] = 1;
 726:	41 e0       	ldi	r20, 0x01	; 1
 728:	50 e0       	ldi	r21, 0x00	; 0
			x10add[(i * 2) - 2] = 0;
			x10add[(i * 2) - 1] = 1;
			}
		}		
	for (int i = 1; i < (COMMAND_LENGTH)+1; i++) {
		if (com[((i)-1)] == 1) {							// Konvertering af kommandoer til komplimentære bits
 72a:	8d 91       	ld	r24, X+
 72c:	9d 91       	ld	r25, X+
 72e:	81 30       	cpi	r24, 0x01	; 1
 730:	91 05       	cpc	r25, r1
 732:	29 f4       	brne	.+10     	; 0x73e <x10encode+0x66>
		x10com[(i * 2) - 2] = 1;
 734:	51 83       	std	Z+1, r21	; 0x01
 736:	40 83       	st	Z, r20
		x10com[(i * 2) - 1] = 0;
 738:	13 82       	std	Z+3, r1	; 0x03
 73a:	12 82       	std	Z+2, r1	; 0x02
 73c:	04 c0       	rjmp	.+8      	; 0x746 <x10encode+0x6e>
	}
	else {
		x10com[(i * 2) - 2] = 0;
 73e:	11 82       	std	Z+1, r1	; 0x01
 740:	10 82       	st	Z, r1
		x10com[(i * 2) - 1] = 1;
 742:	53 83       	std	Z+3, r21	; 0x03
 744:	42 83       	std	Z+2, r20	; 0x02
		else {
			x10add[(i * 2) - 2] = 0;
			x10add[(i * 2) - 1] = 1;
			}
		}		
	for (int i = 1; i < (COMMAND_LENGTH)+1; i++) {
 746:	2f 5f       	subi	r18, 0xFF	; 255
 748:	3f 4f       	sbci	r19, 0xFF	; 255
 74a:	34 96       	adiw	r30, 0x04	; 4
 74c:	25 30       	cpi	r18, 0x05	; 5
 74e:	31 05       	cpc	r19, r1
 750:	61 f7       	brne	.-40     	; 0x72a <x10encode+0x52>
	else {
		x10com[(i * 2) - 2] = 0;
		x10com[(i * 2) - 1] = 1;
	}
}
 752:	df 91       	pop	r29
 754:	cf 91       	pop	r28
 756:	08 95       	ret

00000758 <toEncode>:
* Created: 30-04-2018 12:56:25
*  Author: Valdemar
*/
#include "Encoder.h"

void toEncode(const char* source, int * address_dest, int address_length, int* command_dest, int command_length, int * x10add, int * x10com) {
 758:	8f 92       	push	r8
 75a:	9f 92       	push	r9
 75c:	af 92       	push	r10
 75e:	bf 92       	push	r11
 760:	cf 92       	push	r12
 762:	df 92       	push	r13
 764:	ef 92       	push	r14
 766:	ff 92       	push	r15
 768:	0f 93       	push	r16
 76a:	1f 93       	push	r17
 76c:	cf 93       	push	r28
 76e:	df 93       	push	r29
 770:	ec 01       	movw	r28, r24
 772:	5b 01       	movw	r10, r22
 774:	49 01       	movw	r8, r18
	encodeAddress(source, address_dest, address_length);
 776:	0e 94 f3 02 	call	0x5e6	; 0x5e6 <encodeAddress>
	encodeCommand(source, command_dest, command_length);
 77a:	ce 01       	movw	r24, r28
 77c:	b4 01       	movw	r22, r8
 77e:	a8 01       	movw	r20, r16
 780:	0e 94 7a 02 	call	0x4f4	; 0x4f4 <encodeCommand>
	x10encode(address_dest, command_dest,x10add,x10com);
 784:	c5 01       	movw	r24, r10
 786:	b4 01       	movw	r22, r8
 788:	a7 01       	movw	r20, r14
 78a:	96 01       	movw	r18, r12
 78c:	0e 94 6c 03 	call	0x6d8	; 0x6d8 <x10encode>
}
 790:	df 91       	pop	r29
 792:	cf 91       	pop	r28
 794:	1f 91       	pop	r17
 796:	0f 91       	pop	r16
 798:	ff 90       	pop	r15
 79a:	ef 90       	pop	r14
 79c:	df 90       	pop	r13
 79e:	cf 90       	pop	r12
 7a0:	bf 90       	pop	r11
 7a2:	af 90       	pop	r10
 7a4:	9f 90       	pop	r9
 7a6:	8f 90       	pop	r8
 7a8:	08 95       	ret

000007aa <main>:
volatile int x10address[ADDRESS_LENGTH*2];
volatile int x10command[COMMAND_LENGTH*2];


int main(){
	setup();
 7aa:	0e 94 eb 00 	call	0x1d6	; 0x1d6 <setup>
		data[3] = 0;*/
	//}
	disableINT1();
	InitUART(9600,8,'N',1);
	while(getMessage()== 0){}
	toEncode(data,address,ADDRESS_LENGTH,command,COMMAND_LENGTH,x10address,x10command);
 7ae:	0f 2e       	mov	r0, r31
 7b0:	fd e7       	ldi	r31, 0x7D	; 125
 7b2:	8f 2e       	mov	r8, r31
 7b4:	f2 e0       	ldi	r31, 0x02	; 2
 7b6:	9f 2e       	mov	r9, r31
 7b8:	f0 2d       	mov	r31, r0
 7ba:	0f 2e       	mov	r0, r31
 7bc:	fd e5       	ldi	r31, 0x5D	; 93
 7be:	6f 2e       	mov	r6, r31
 7c0:	f2 e0       	ldi	r31, 0x02	; 2
 7c2:	7f 2e       	mov	r7, r31
 7c4:	f0 2d       	mov	r31, r0
 7c6:	0f 2e       	mov	r0, r31
 7c8:	f5 e7       	ldi	r31, 0x75	; 117
 7ca:	4f 2e       	mov	r4, r31
 7cc:	f2 e0       	ldi	r31, 0x02	; 2
 7ce:	5f 2e       	mov	r5, r31
 7d0:	f0 2d       	mov	r31, r0
 7d2:	c1 e8       	ldi	r28, 0x81	; 129
 7d4:	d2 e0       	ldi	r29, 0x02	; 2
 7d6:	0f 2e       	mov	r0, r31
 7d8:	f5 e6       	ldi	r31, 0x65	; 101
 7da:	af 2e       	mov	r10, r31
 7dc:	f2 e0       	ldi	r31, 0x02	; 2
 7de:	bf 2e       	mov	r11, r31
 7e0:	f0 2d       	mov	r31, r0
		/*data[0] = 0;
		data[1] = 0;
		data[2] = 0;
		data[3] = 0;*/
	//}
	disableINT1();
 7e2:	0e 94 ae 00 	call	0x15c	; 0x15c <disableINT1>
	InitUART(9600,8,'N',1);
 7e6:	60 e8       	ldi	r22, 0x80	; 128
 7e8:	75 e2       	ldi	r23, 0x25	; 37
 7ea:	80 e0       	ldi	r24, 0x00	; 0
 7ec:	90 e0       	ldi	r25, 0x00	; 0
 7ee:	48 e0       	ldi	r20, 0x08	; 8
 7f0:	2e e4       	ldi	r18, 0x4E	; 78
 7f2:	01 e0       	ldi	r16, 0x01	; 1
 7f4:	0e 94 73 05 	call	0xae6	; 0xae6 <InitUART>
	while(getMessage()== 0){}
 7f8:	0e 94 61 06 	call	0xcc2	; 0xcc2 <getMessage>
 7fc:	00 97       	sbiw	r24, 0x00	; 0
 7fe:	e1 f3       	breq	.-8      	; 0x7f8 <main+0x4e>
	toEncode(data,address,ADDRESS_LENGTH,command,COMMAND_LENGTH,x10address,x10command);
 800:	c4 01       	movw	r24, r8
 802:	b3 01       	movw	r22, r6
 804:	44 e0       	ldi	r20, 0x04	; 4
 806:	50 e0       	ldi	r21, 0x00	; 0
 808:	92 01       	movw	r18, r4
 80a:	04 e0       	ldi	r16, 0x04	; 4
 80c:	10 e0       	ldi	r17, 0x00	; 0
 80e:	7e 01       	movw	r14, r28
 810:	65 01       	movw	r12, r10
 812:	0e 94 ac 03 	call	0x758	; 0x758 <toEncode>
	startTransmission(x10address,x10command);
 816:	ce 01       	movw	r24, r28
 818:	b5 01       	movw	r22, r10
 81a:	0e 94 22 02 	call	0x444	; 0x444 <startTransmission>
	reset();
 81e:	0e 94 39 01 	call	0x272	; 0x272 <reset>
	}
 822:	df cf       	rjmp	.-66     	; 0x7e2 <main+0x38>

00000824 <__vector_1>:
}

ISR(INT0_vect){
 824:	1f 92       	push	r1
 826:	0f 92       	push	r0
 828:	0f b6       	in	r0, 0x3f	; 63
 82a:	0f 92       	push	r0
 82c:	0b b6       	in	r0, 0x3b	; 59
 82e:	0f 92       	push	r0
 830:	11 24       	eor	r1, r1
 832:	2f 93       	push	r18
 834:	3f 93       	push	r19
 836:	4f 93       	push	r20
 838:	5f 93       	push	r21
 83a:	6f 93       	push	r22
 83c:	7f 93       	push	r23
 83e:	8f 93       	push	r24
 840:	9f 93       	push	r25
 842:	af 93       	push	r26
 844:	bf 93       	push	r27
 846:	ef 93       	push	r30
 848:	ff 93       	push	r31
	if(getWait() == 1){
 84a:	0e 94 f4 00 	call	0x1e8	; 0x1e8 <getWait>
 84e:	81 30       	cpi	r24, 0x01	; 1
 850:	91 05       	cpc	r25, r1
 852:	29 f4       	brne	.+10     	; 0x85e <__vector_1+0x3a>
		//setSend(0);
		setWait(0);
 854:	80 e0       	ldi	r24, 0x00	; 0
 856:	90 e0       	ldi	r25, 0x00	; 0
 858:	0e 94 ef 00 	call	0x1de	; 0x1de <setWait>
 85c:	04 c0       	rjmp	.+8      	; 0x866 <__vector_1+0x42>
	}
	else {
		initTimer3(1);
 85e:	81 e0       	ldi	r24, 0x01	; 1
 860:	90 e0       	ldi	r25, 0x00	; 0
 862:	0e 94 75 06 	call	0xcea	; 0xcea <initTimer3>
	}
}
 866:	ff 91       	pop	r31
 868:	ef 91       	pop	r30
 86a:	bf 91       	pop	r27
 86c:	af 91       	pop	r26
 86e:	9f 91       	pop	r25
 870:	8f 91       	pop	r24
 872:	7f 91       	pop	r23
 874:	6f 91       	pop	r22
 876:	5f 91       	pop	r21
 878:	4f 91       	pop	r20
 87a:	3f 91       	pop	r19
 87c:	2f 91       	pop	r18
 87e:	0f 90       	pop	r0
 880:	0b be       	out	0x3b, r0	; 59
 882:	0f 90       	pop	r0
 884:	0f be       	out	0x3f, r0	; 63
 886:	0f 90       	pop	r0
 888:	1f 90       	pop	r1
 88a:	18 95       	reti

0000088c <__vector_25>:
ISR (USART0_RX_vect){
 88c:	1f 92       	push	r1
 88e:	0f 92       	push	r0
 890:	0f b6       	in	r0, 0x3f	; 63
 892:	0f 92       	push	r0
 894:	0b b6       	in	r0, 0x3b	; 59
 896:	0f 92       	push	r0
 898:	11 24       	eor	r1, r1
 89a:	2f 93       	push	r18
 89c:	3f 93       	push	r19
 89e:	4f 93       	push	r20
 8a0:	5f 93       	push	r21
 8a2:	6f 93       	push	r22
 8a4:	7f 93       	push	r23
 8a6:	8f 93       	push	r24
 8a8:	9f 93       	push	r25
 8aa:	af 93       	push	r26
 8ac:	bf 93       	push	r27
 8ae:	ef 93       	push	r30
 8b0:	ff 93       	push	r31
	fillArray(data);
 8b2:	8d e7       	ldi	r24, 0x7D	; 125
 8b4:	92 e0       	ldi	r25, 0x02	; 2
 8b6:	0e 94 43 06 	call	0xc86	; 0xc86 <fillArray>
}
 8ba:	ff 91       	pop	r31
 8bc:	ef 91       	pop	r30
 8be:	bf 91       	pop	r27
 8c0:	af 91       	pop	r26
 8c2:	9f 91       	pop	r25
 8c4:	8f 91       	pop	r24
 8c6:	7f 91       	pop	r23
 8c8:	6f 91       	pop	r22
 8ca:	5f 91       	pop	r21
 8cc:	4f 91       	pop	r20
 8ce:	3f 91       	pop	r19
 8d0:	2f 91       	pop	r18
 8d2:	0f 90       	pop	r0
 8d4:	0b be       	out	0x3b, r0	; 59
 8d6:	0f 90       	pop	r0
 8d8:	0f be       	out	0x3f, r0	; 63
 8da:	0f 90       	pop	r0
 8dc:	1f 90       	pop	r1
 8de:	18 95       	reti

000008e0 <__vector_23>:

ISR(TIMER0_OVF_vect)
{
 8e0:	1f 92       	push	r1
 8e2:	0f 92       	push	r0
 8e4:	0f b6       	in	r0, 0x3f	; 63
 8e6:	0f 92       	push	r0
 8e8:	0b b6       	in	r0, 0x3b	; 59
 8ea:	0f 92       	push	r0
 8ec:	11 24       	eor	r1, r1
 8ee:	2f 93       	push	r18
 8f0:	3f 93       	push	r19
 8f2:	4f 93       	push	r20
 8f4:	5f 93       	push	r21
 8f6:	6f 93       	push	r22
 8f8:	7f 93       	push	r23
 8fa:	8f 93       	push	r24
 8fc:	9f 93       	push	r25
 8fe:	af 93       	push	r26
 900:	bf 93       	push	r27
 902:	ef 93       	push	r30
 904:	ff 93       	push	r31
	setSend(1);
 906:	81 e0       	ldi	r24, 0x01	; 1
 908:	90 e0       	ldi	r25, 0x00	; 0
 90a:	0e 94 fe 00 	call	0x1fc	; 0x1fc <setSend>
}
 90e:	ff 91       	pop	r31
 910:	ef 91       	pop	r30
 912:	bf 91       	pop	r27
 914:	af 91       	pop	r26
 916:	9f 91       	pop	r25
 918:	8f 91       	pop	r24
 91a:	7f 91       	pop	r23
 91c:	6f 91       	pop	r22
 91e:	5f 91       	pop	r21
 920:	4f 91       	pop	r20
 922:	3f 91       	pop	r19
 924:	2f 91       	pop	r18
 926:	0f 90       	pop	r0
 928:	0b be       	out	0x3b, r0	; 59
 92a:	0f 90       	pop	r0
 92c:	0f be       	out	0x3f, r0	; 63
 92e:	0f 90       	pop	r0
 930:	1f 90       	pop	r1
 932:	18 95       	reti

00000934 <__vector_15>:

ISR(TIMER2_OVF_vect){
 934:	1f 92       	push	r1
 936:	0f 92       	push	r0
 938:	0f b6       	in	r0, 0x3f	; 63
 93a:	0f 92       	push	r0
 93c:	0b b6       	in	r0, 0x3b	; 59
 93e:	0f 92       	push	r0
 940:	11 24       	eor	r1, r1
 942:	2f 93       	push	r18
 944:	3f 93       	push	r19
 946:	4f 93       	push	r20
 948:	5f 93       	push	r21
 94a:	6f 93       	push	r22
 94c:	7f 93       	push	r23
 94e:	8f 93       	push	r24
 950:	9f 93       	push	r25
 952:	af 93       	push	r26
 954:	bf 93       	push	r27
 956:	ef 93       	push	r30
 958:	ff 93       	push	r31
	stopTimer1();
 95a:	0e 94 67 05 	call	0xace	; 0xace <stopTimer1>
	stopTimer2();
 95e:	0e 94 6c 05 	call	0xad8	; 0xad8 <stopTimer2>
}
 962:	ff 91       	pop	r31
 964:	ef 91       	pop	r30
 966:	bf 91       	pop	r27
 968:	af 91       	pop	r26
 96a:	9f 91       	pop	r25
 96c:	8f 91       	pop	r24
 96e:	7f 91       	pop	r23
 970:	6f 91       	pop	r22
 972:	5f 91       	pop	r21
 974:	4f 91       	pop	r20
 976:	3f 91       	pop	r19
 978:	2f 91       	pop	r18
 97a:	0f 90       	pop	r0
 97c:	0b be       	out	0x3b, r0	; 59
 97e:	0f 90       	pop	r0
 980:	0f be       	out	0x3f, r0	; 63
 982:	0f 90       	pop	r0
 984:	1f 90       	pop	r1
 986:	18 95       	reti

00000988 <__vector_2>:

ISR(INT1_vect){
 988:	1f 92       	push	r1
 98a:	0f 92       	push	r0
 98c:	0f b6       	in	r0, 0x3f	; 63
 98e:	0f 92       	push	r0
 990:	0b b6       	in	r0, 0x3b	; 59
 992:	0f 92       	push	r0
 994:	11 24       	eor	r1, r1
 996:	2f 93       	push	r18
 998:	3f 93       	push	r19
 99a:	4f 93       	push	r20
 99c:	5f 93       	push	r21
 99e:	6f 93       	push	r22
 9a0:	7f 93       	push	r23
 9a2:	8f 93       	push	r24
 9a4:	9f 93       	push	r25
 9a6:	af 93       	push	r26
 9a8:	bf 93       	push	r27
 9aa:	ef 93       	push	r30
 9ac:	ff 93       	push	r31
	setStatus(checkStatus());
 9ae:	0e 94 96 00 	call	0x12c	; 0x12c <checkStatus>
 9b2:	0e 94 9f 00 	call	0x13e	; 0x13e <setStatus>
}
 9b6:	ff 91       	pop	r31
 9b8:	ef 91       	pop	r30
 9ba:	bf 91       	pop	r27
 9bc:	af 91       	pop	r26
 9be:	9f 91       	pop	r25
 9c0:	8f 91       	pop	r24
 9c2:	7f 91       	pop	r23
 9c4:	6f 91       	pop	r22
 9c6:	5f 91       	pop	r21
 9c8:	4f 91       	pop	r20
 9ca:	3f 91       	pop	r19
 9cc:	2f 91       	pop	r18
 9ce:	0f 90       	pop	r0
 9d0:	0b be       	out	0x3b, r0	; 59
 9d2:	0f 90       	pop	r0
 9d4:	0f be       	out	0x3f, r0	; 63
 9d6:	0f 90       	pop	r0
 9d8:	1f 90       	pop	r1
 9da:	18 95       	reti

000009dc <__vector_35>:

ISR(TIMER3_OVF_vect){
 9dc:	1f 92       	push	r1
 9de:	0f 92       	push	r0
 9e0:	0f b6       	in	r0, 0x3f	; 63
 9e2:	0f 92       	push	r0
 9e4:	0b b6       	in	r0, 0x3b	; 59
 9e6:	0f 92       	push	r0
 9e8:	11 24       	eor	r1, r1
 9ea:	2f 93       	push	r18
 9ec:	3f 93       	push	r19
 9ee:	4f 93       	push	r20
 9f0:	5f 93       	push	r21
 9f2:	6f 93       	push	r22
 9f4:	7f 93       	push	r23
 9f6:	8f 93       	push	r24
 9f8:	9f 93       	push	r25
 9fa:	af 93       	push	r26
 9fc:	bf 93       	push	r27
 9fe:	ef 93       	push	r30
 a00:	ff 93       	push	r31
	setSend(1);
 a02:	81 e0       	ldi	r24, 0x01	; 1
 a04:	90 e0       	ldi	r25, 0x00	; 0
 a06:	0e 94 fe 00 	call	0x1fc	; 0x1fc <setSend>
	if(getCounterTimer() == 0){
 a0a:	0e 94 9f 06 	call	0xd3e	; 0xd3e <getCounterTimer>
 a0e:	00 97       	sbiw	r24, 0x00	; 0
 a10:	49 f4       	brne	.+18     	; 0xa24 <__vector_35+0x48>
		setCounterTimer(1);
 a12:	81 e0       	ldi	r24, 0x01	; 1
 a14:	90 e0       	ldi	r25, 0x00	; 0
 a16:	0e 94 9a 06 	call	0xd34	; 0xd34 <setCounterTimer>
		initTimer3(10);
 a1a:	8a e0       	ldi	r24, 0x0A	; 10
 a1c:	90 e0       	ldi	r25, 0x00	; 0
 a1e:	0e 94 75 06 	call	0xcea	; 0xcea <initTimer3>
 a22:	0b c0       	rjmp	.+22     	; 0xa3a <__vector_35+0x5e>
	}
	else if(getCounterTimer() == 1){
 a24:	0e 94 9f 06 	call	0xd3e	; 0xd3e <getCounterTimer>
 a28:	81 30       	cpi	r24, 0x01	; 1
 a2a:	91 05       	cpc	r25, r1
 a2c:	31 f4       	brne	.+12     	; 0xa3a <__vector_35+0x5e>
		setCounterTimer(0);
 a2e:	80 e0       	ldi	r24, 0x00	; 0
 a30:	90 e0       	ldi	r25, 0x00	; 0
 a32:	0e 94 9a 06 	call	0xd34	; 0xd34 <setCounterTimer>
		stopTimer3();
 a36:	0e 94 93 06 	call	0xd26	; 0xd26 <stopTimer3>
	}
 a3a:	ff 91       	pop	r31
 a3c:	ef 91       	pop	r30
 a3e:	bf 91       	pop	r27
 a40:	af 91       	pop	r26
 a42:	9f 91       	pop	r25
 a44:	8f 91       	pop	r24
 a46:	7f 91       	pop	r23
 a48:	6f 91       	pop	r22
 a4a:	5f 91       	pop	r21
 a4c:	4f 91       	pop	r20
 a4e:	3f 91       	pop	r19
 a50:	2f 91       	pop	r18
 a52:	0f 90       	pop	r0
 a54:	0b be       	out	0x3b, r0	; 59
 a56:	0f 90       	pop	r0
 a58:	0f be       	out	0x3f, r0	; 63
 a5a:	0f 90       	pop	r0
 a5c:	1f 90       	pop	r1
 a5e:	18 95       	reti

00000a60 <initTimer0>:
#include "Controller.h"
#include <avr/io.h>

//Timer 0 functions
void initTimer0(){
	TCCR0B |= 0b00000100; // 256 clock prescaler
 a60:	85 b5       	in	r24, 0x25	; 37
 a62:	84 60       	ori	r24, 0x04	; 4
 a64:	85 bd       	out	0x25, r24	; 37
	TIMSK0 |= 0b00000001;
 a66:	ee e6       	ldi	r30, 0x6E	; 110
 a68:	f0 e0       	ldi	r31, 0x00	; 0
 a6a:	80 81       	ld	r24, Z
 a6c:	81 60       	ori	r24, 0x01	; 1
 a6e:	80 83       	st	Z, r24
	TCNT0 = 48; //3.3 ms to overflow
 a70:	80 e3       	ldi	r24, 0x30	; 48
 a72:	86 bd       	out	0x26, r24	; 38
}
 a74:	08 95       	ret

00000a76 <stopTimer0>:
void stopTimer0(){
	TCCR0A = 0;
 a76:	14 bc       	out	0x24, r1	; 36
	TCCR0B = 0;
 a78:	15 bc       	out	0x25, r1	; 37
	TIMSK0 = 0;
 a7a:	10 92 6e 00 	sts	0x006E, r1
}
 a7e:	08 95       	ret

00000a80 <initTimer2>:
	//PORTB |= 0b00100000;
	initTimer2();
}

void initTimer2(){
	TIMSK2 |= 1;
 a80:	e0 e7       	ldi	r30, 0x70	; 112
 a82:	f0 e0       	ldi	r31, 0x00	; 0
 a84:	80 81       	ld	r24, Z
 a86:	81 60       	ori	r24, 0x01	; 1
 a88:	80 83       	st	Z, r24
	TCCR2B |= 0b00000110;
 a8a:	e1 eb       	ldi	r30, 0xB1	; 177
 a8c:	f0 e0       	ldi	r31, 0x00	; 0
 a8e:	80 81       	ld	r24, Z
 a90:	86 60       	ori	r24, 0x06	; 6
 a92:	80 83       	st	Z, r24
	TCNT2 = 193;
 a94:	81 ec       	ldi	r24, 0xC1	; 193
 a96:	80 93 b2 00 	sts	0x00B2, r24
}
 a9a:	08 95       	ret

00000a9c <sendPWM>:
	TIMSK0 = 0;
}

//Timer 1 functions
void sendPWM(){
	TCCR1A |= 0b10000010; // initiering af PWM ved timer 1
 a9c:	e0 e8       	ldi	r30, 0x80	; 128
 a9e:	f0 e0       	ldi	r31, 0x00	; 0
 aa0:	80 81       	ld	r24, Z
 aa2:	82 68       	ori	r24, 0x82	; 130
 aa4:	80 83       	st	Z, r24
	TCCR1B |= 0b00011001;
 aa6:	e1 e8       	ldi	r30, 0x81	; 129
 aa8:	f0 e0       	ldi	r31, 0x00	; 0
 aaa:	80 81       	ld	r24, Z
 aac:	89 61       	ori	r24, 0x19	; 25
 aae:	80 83       	st	Z, r24
	OCR1A = 132/2;
 ab0:	82 e4       	ldi	r24, 0x42	; 66
 ab2:	90 e0       	ldi	r25, 0x00	; 0
 ab4:	90 93 89 00 	sts	0x0089, r25
 ab8:	80 93 88 00 	sts	0x0088, r24
	ICR1 = 132;
 abc:	84 e8       	ldi	r24, 0x84	; 132
 abe:	90 e0       	ldi	r25, 0x00	; 0
 ac0:	90 93 87 00 	sts	0x0087, r25
 ac4:	80 93 86 00 	sts	0x0086, r24
	//PORTB |= 0b00100000;
	initTimer2();
 ac8:	0e 94 40 05 	call	0xa80	; 0xa80 <initTimer2>
}
 acc:	08 95       	ret

00000ace <stopTimer1>:
	TIMSK2 |= 1;
	TCCR2B |= 0b00000110;
	TCNT2 = 193;
}
void stopTimer1(){
	TCCR1A = 0;
 ace:	10 92 80 00 	sts	0x0080, r1
	TCCR1B = 0;
 ad2:	10 92 81 00 	sts	0x0081, r1
	//PORTB &= 0b11011111;
}
 ad6:	08 95       	ret

00000ad8 <stopTimer2>:
void stopTimer2(){
	TCCR2A = 0;
 ad8:	10 92 b0 00 	sts	0x00B0, r1
	TCCR2B = 0;
 adc:	10 92 b1 00 	sts	0x00B1, r1
	TIMSK2 = 0;
 ae0:	10 92 70 00 	sts	0x0070, r1
 ae4:	08 95       	ret

00000ae6 <InitUART>:
	Databits: Wanted number of Data Bits (5-8).
	Parity: 'E' (Even parity), 'O' (Odd parity), otherwise No Parity.
	Rx_Int: If non-zero, receiver interrupt will be enabled.
*************************************************************************/
void InitUART(unsigned long BaudRate, unsigned char DataBit, char Parity, unsigned char RX_Int)
{
 ae6:	cf 92       	push	r12
 ae8:	df 92       	push	r13
 aea:	ef 92       	push	r14
 aec:	ff 92       	push	r15
 aee:	0f 93       	push	r16
 af0:	dc 01       	movw	r26, r24
 af2:	cb 01       	movw	r24, r22
  if ((BaudRate >= 110) && (BaudRate <= 115200) && (DataBit >=5) && (DataBit <= 8))
 af4:	0f 2e       	mov	r0, r31
 af6:	f2 e9       	ldi	r31, 0x92	; 146
 af8:	cf 2e       	mov	r12, r31
 afa:	ff ef       	ldi	r31, 0xFF	; 255
 afc:	df 2e       	mov	r13, r31
 afe:	ff ef       	ldi	r31, 0xFF	; 255
 b00:	ef 2e       	mov	r14, r31
 b02:	ff ef       	ldi	r31, 0xFF	; 255
 b04:	ff 2e       	mov	r15, r31
 b06:	f0 2d       	mov	r31, r0
 b08:	c8 0e       	add	r12, r24
 b0a:	d9 1e       	adc	r13, r25
 b0c:	ea 1e       	adc	r14, r26
 b0e:	fb 1e       	adc	r15, r27
 b10:	33 e9       	ldi	r19, 0x93	; 147
 b12:	c3 16       	cp	r12, r19
 b14:	31 ec       	ldi	r19, 0xC1	; 193
 b16:	d3 06       	cpc	r13, r19
 b18:	31 e0       	ldi	r19, 0x01	; 1
 b1a:	e3 06       	cpc	r14, r19
 b1c:	30 e0       	ldi	r19, 0x00	; 0
 b1e:	f3 06       	cpc	r15, r19
 b20:	08 f0       	brcs	.+2      	; 0xb24 <InitUART+0x3e>
 b22:	46 c0       	rjmp	.+140    	; 0xbb0 <InitUART+0xca>
 b24:	45 30       	cpi	r20, 0x05	; 5
 b26:	08 f4       	brcc	.+2      	; 0xb2a <InitUART+0x44>
 b28:	43 c0       	rjmp	.+134    	; 0xbb0 <InitUART+0xca>
 b2a:	49 30       	cpi	r20, 0x09	; 9
 b2c:	08 f0       	brcs	.+2      	; 0xb30 <InitUART+0x4a>
 b2e:	40 c0       	rjmp	.+128    	; 0xbb0 <InitUART+0xca>
  { 
    // "Normal" clock, no multiprocessor mode (= default)
    UCSR0A = 0b00100000;
 b30:	30 e2       	ldi	r19, 0x20	; 32
 b32:	30 93 c0 00 	sts	0x00C0, r19
    // No interrupts enabled
    // Receiver enabled
    // Transmitter enabled
    // No 9 bit operation
    UCSR0B = 0b00011000;
 b36:	38 e1       	ldi	r19, 0x18	; 24
 b38:	30 93 c1 00 	sts	0x00C1, r19
    // Enable RX interrupt (if wanted by parameter)
    if (RX_Int)
 b3c:	00 23       	and	r16, r16
 b3e:	29 f0       	breq	.+10     	; 0xb4a <InitUART+0x64>
		UCSR0B |= 0b10000000;
 b40:	e1 ec       	ldi	r30, 0xC1	; 193
 b42:	f0 e0       	ldi	r31, 0x00	; 0
 b44:	30 81       	ld	r19, Z
 b46:	30 68       	ori	r19, 0x80	; 128
 b48:	30 83       	st	Z, r19
    // Asynchronous operation, 1 stop bit
    // Bit 2 and bit 1 controls the number of data bits
    UCSR0C = (DataBit-5)<<1;
 b4a:	45 50       	subi	r20, 0x05	; 5
 b4c:	44 0f       	add	r20, r20
 b4e:	e2 ec       	ldi	r30, 0xC2	; 194
 b50:	f0 e0       	ldi	r31, 0x00	; 0
 b52:	40 83       	st	Z, r20
	// Set parity bits (if parity used)
	UCSR0C |= 0b00001000;
 b54:	30 81       	ld	r19, Z
 b56:	38 60       	ori	r19, 0x08	; 8
 b58:	30 83       	st	Z, r19
    if (Parity == 'E')
 b5a:	25 34       	cpi	r18, 0x45	; 69
 b5c:	21 f4       	brne	.+8      	; 0xb66 <InitUART+0x80>
    UCSR0C |= 0b00100000;
 b5e:	20 81       	ld	r18, Z
 b60:	20 62       	ori	r18, 0x20	; 32
 b62:	20 83       	st	Z, r18
 b64:	07 c0       	rjmp	.+14     	; 0xb74 <InitUART+0x8e>
    else if (Parity == 'O')	  
 b66:	2f 34       	cpi	r18, 0x4F	; 79
 b68:	29 f4       	brne	.+10     	; 0xb74 <InitUART+0x8e>
    UCSR0C |= 0b00110000;	
 b6a:	e2 ec       	ldi	r30, 0xC2	; 194
 b6c:	f0 e0       	ldi	r31, 0x00	; 0
 b6e:	20 81       	ld	r18, Z
 b70:	20 63       	ori	r18, 0x30	; 48
 b72:	20 83       	st	Z, r18
    // Set Baud Rate according to the parameter BaudRate:
    // Select Baud Rate (first store "UBRRH--UBRRL" in local 16-bit variable,
    //                   then write the two 8-bit registers separately):
    // Set Baud Rate according to the parameter BaudRate:
    UBRR0 = XTAL/(16*BaudRate) - 1;
 b74:	88 0f       	add	r24, r24
 b76:	99 1f       	adc	r25, r25
 b78:	aa 1f       	adc	r26, r26
 b7a:	bb 1f       	adc	r27, r27
 b7c:	88 0f       	add	r24, r24
 b7e:	99 1f       	adc	r25, r25
 b80:	aa 1f       	adc	r26, r26
 b82:	bb 1f       	adc	r27, r27
 b84:	9c 01       	movw	r18, r24
 b86:	ad 01       	movw	r20, r26
 b88:	22 0f       	add	r18, r18
 b8a:	33 1f       	adc	r19, r19
 b8c:	44 1f       	adc	r20, r20
 b8e:	55 1f       	adc	r21, r21
 b90:	22 0f       	add	r18, r18
 b92:	33 1f       	adc	r19, r19
 b94:	44 1f       	adc	r20, r20
 b96:	55 1f       	adc	r21, r21
 b98:	60 e0       	ldi	r22, 0x00	; 0
 b9a:	74 e2       	ldi	r23, 0x24	; 36
 b9c:	84 ef       	ldi	r24, 0xF4	; 244
 b9e:	90 e0       	ldi	r25, 0x00	; 0
 ba0:	0e 94 a4 06 	call	0xd48	; 0xd48 <__udivmodsi4>
 ba4:	21 50       	subi	r18, 0x01	; 1
 ba6:	30 40       	sbci	r19, 0x00	; 0
 ba8:	30 93 c5 00 	sts	0x00C5, r19
 bac:	20 93 c4 00 	sts	0x00C4, r18
  }  
}
 bb0:	0f 91       	pop	r16
 bb2:	ff 90       	pop	r15
 bb4:	ef 90       	pop	r14
 bb6:	df 90       	pop	r13
 bb8:	cf 90       	pop	r12
 bba:	08 95       	ret

00000bbc <disableUART>:
void disableUART(){
	UCSR0B = 0;
 bbc:	10 92 c1 00 	sts	0x00C1, r1
	UCSR0A = 0;
 bc0:	10 92 c0 00 	sts	0x00C0, r1
	UCSR0C = 0;
 bc4:	10 92 c2 00 	sts	0x00C2, r1
	UBRR0 = 0;
 bc8:	10 92 c5 00 	sts	0x00C5, r1
 bcc:	10 92 c4 00 	sts	0x00C4, r1
}
 bd0:	08 95       	ret

00000bd2 <CharReady>:
  Returns 0 (FALSE), if the UART has NOT received a new character.
  Returns value <> 0 (TRUE), if the UART HAS received a new character.
*************************************************************************/
unsigned char CharReady()
{
   return UCSR0A & (1<<7);
 bd2:	80 91 c0 00 	lds	r24, 0x00C0
}
 bd6:	80 78       	andi	r24, 0x80	; 128
 bd8:	08 95       	ret

00000bda <ReadChar>:
Then this character is returned.
*************************************************************************/
char ReadChar()
{
  // Wait for new character received
  while ( (UCSR0A & (1<<7)) == 0 )
 bda:	e0 ec       	ldi	r30, 0xC0	; 192
 bdc:	f0 e0       	ldi	r31, 0x00	; 0
 bde:	80 81       	ld	r24, Z
 be0:	88 23       	and	r24, r24
 be2:	ec f7       	brge	.-6      	; 0xbde <ReadChar+0x4>
  {}                        
  // Then return it
  return UDR0;
 be4:	80 91 c6 00 	lds	r24, 0x00C6
}
 be8:	08 95       	ret

00000bea <SendChar>:
	Tegn : Character for sending. 
*************************************************************************/
void SendChar(char Tegn)
{
  // Wait for transmitter register empty (ready for new character)
  while ( (UCSR0A & (1<<5)) == 0 )
 bea:	e0 ec       	ldi	r30, 0xC0	; 192
 bec:	f0 e0       	ldi	r31, 0x00	; 0
 bee:	90 81       	ld	r25, Z
 bf0:	95 ff       	sbrs	r25, 5
 bf2:	fd cf       	rjmp	.-6      	; 0xbee <SendChar+0x4>
  {}
  // Then send the character
  UDR0 = Tegn;
 bf4:	80 93 c6 00 	sts	0x00C6, r24
}
 bf8:	08 95       	ret

00000bfa <SendString>:
Sends 0 terminated string.
Parameter:
   Streng: Pointer to the string. 
*************************************************************************/
void SendString(char* Streng)
{
 bfa:	cf 93       	push	r28
 bfc:	df 93       	push	r29
 bfe:	ec 01       	movw	r28, r24
  // Repeat until zero-termination
  while (*Streng != 0)
 c00:	88 81       	ld	r24, Y
 c02:	88 23       	and	r24, r24
 c04:	31 f0       	breq	.+12     	; 0xc12 <SendString+0x18>
/*************************************************************************
Sends 0 terminated string.
Parameter:
   Streng: Pointer to the string. 
*************************************************************************/
void SendString(char* Streng)
 c06:	21 96       	adiw	r28, 0x01	; 1
{
  // Repeat until zero-termination
  while (*Streng != 0)
  {
    // Send the character pointed to by "Streng"
    SendChar(*Streng);
 c08:	0e 94 f5 05 	call	0xbea	; 0xbea <SendChar>
   Streng: Pointer to the string. 
*************************************************************************/
void SendString(char* Streng)
{
  // Repeat until zero-termination
  while (*Streng != 0)
 c0c:	89 91       	ld	r24, Y+
 c0e:	88 23       	and	r24, r24
 c10:	d9 f7       	brne	.-10     	; 0xc08 <SendString+0xe>
    // Send the character pointed to by "Streng"
    SendChar(*Streng);
    // Advance the pointer one step
    Streng++;
  }
}
 c12:	df 91       	pop	r29
 c14:	cf 91       	pop	r28
 c16:	08 95       	ret

00000c18 <SendInteger>:
Makes use of the C standard library <stdlib.h>.
Parameter:
    Tal: The integer to be converted and sent. 
*************************************************************************/
void SendInteger(int Tal)
{
 c18:	cf 93       	push	r28
 c1a:	df 93       	push	r29
 c1c:	cd b7       	in	r28, 0x3d	; 61
 c1e:	de b7       	in	r29, 0x3e	; 62
 c20:	27 97       	sbiw	r28, 0x07	; 7
 c22:	0f b6       	in	r0, 0x3f	; 63
 c24:	f8 94       	cli
 c26:	de bf       	out	0x3e, r29	; 62
 c28:	0f be       	out	0x3f, r0	; 63
 c2a:	cd bf       	out	0x3d, r28	; 61
char array[7];
  // Convert the integer to an ASCII string (array), radix = 10 
  itoa(Tal, array, 10);
 c2c:	be 01       	movw	r22, r28
 c2e:	6f 5f       	subi	r22, 0xFF	; 255
 c30:	7f 4f       	sbci	r23, 0xFF	; 255
 c32:	4a e0       	ldi	r20, 0x0A	; 10
 c34:	50 e0       	ldi	r21, 0x00	; 0
 c36:	0e 94 c6 06 	call	0xd8c	; 0xd8c <itoa>
  // - then send the string
  SendString(array);
 c3a:	ce 01       	movw	r24, r28
 c3c:	01 96       	adiw	r24, 0x01	; 1
 c3e:	0e 94 fd 05 	call	0xbfa	; 0xbfa <SendString>
}
 c42:	27 96       	adiw	r28, 0x07	; 7
 c44:	0f b6       	in	r0, 0x3f	; 63
 c46:	f8 94       	cli
 c48:	de bf       	out	0x3e, r29	; 62
 c4a:	0f be       	out	0x3f, r0	; 63
 c4c:	cd bf       	out	0x3d, r28	; 61
 c4e:	df 91       	pop	r29
 c50:	cf 91       	pop	r28
 c52:	08 95       	ret

00000c54 <incReadIndex>:
		disableUART();
		setMessage(1);
	}
}
void incReadIndex(){
	readIndex++;
 c54:	80 91 93 02 	lds	r24, 0x0293
 c58:	90 91 94 02 	lds	r25, 0x0294
 c5c:	01 96       	adiw	r24, 0x01	; 1
 c5e:	90 93 94 02 	sts	0x0294, r25
 c62:	80 93 93 02 	sts	0x0293, r24
}
 c66:	08 95       	ret

00000c68 <getReadIndex>:
int getReadIndex(){
	return readIndex;
 c68:	80 91 93 02 	lds	r24, 0x0293
 c6c:	90 91 94 02 	lds	r25, 0x0294
}
 c70:	08 95       	ret

00000c72 <setReadIndex>:
void setReadIndex(int r){
	readIndex = r;
 c72:	90 93 94 02 	sts	0x0294, r25
 c76:	80 93 93 02 	sts	0x0293, r24
}
 c7a:	08 95       	ret

00000c7c <setMessage>:
void setMessage(int m){
	messageReceived = m;
 c7c:	90 93 92 02 	sts	0x0292, r25
 c80:	80 93 91 02 	sts	0x0291, r24
}
 c84:	08 95       	ret

00000c86 <fillArray>:
  itoa(Tal, array, 10);
  // - then send the string
  SendString(array);
}

void fillArray(char * a){
 c86:	cf 93       	push	r28
 c88:	df 93       	push	r29
 c8a:	ec 01       	movw	r28, r24
	a[getReadIndex()] = UDR0;
 c8c:	0e 94 34 06 	call	0xc68	; 0xc68 <getReadIndex>
 c90:	20 91 c6 00 	lds	r18, 0x00C6
 c94:	c8 0f       	add	r28, r24
 c96:	d9 1f       	adc	r29, r25
 c98:	28 83       	st	Y, r18
	incReadIndex();
 c9a:	0e 94 2a 06 	call	0xc54	; 0xc54 <incReadIndex>
	if(getReadIndex() >= 4){
 c9e:	0e 94 34 06 	call	0xc68	; 0xc68 <getReadIndex>
 ca2:	84 30       	cpi	r24, 0x04	; 4
 ca4:	91 05       	cpc	r25, r1
 ca6:	54 f0       	brlt	.+20     	; 0xcbc <fillArray+0x36>
		setReadIndex(0);
 ca8:	80 e0       	ldi	r24, 0x00	; 0
 caa:	90 e0       	ldi	r25, 0x00	; 0
 cac:	0e 94 39 06 	call	0xc72	; 0xc72 <setReadIndex>
		disableUART();
 cb0:	0e 94 de 05 	call	0xbbc	; 0xbbc <disableUART>
		setMessage(1);
 cb4:	81 e0       	ldi	r24, 0x01	; 1
 cb6:	90 e0       	ldi	r25, 0x00	; 0
 cb8:	0e 94 3e 06 	call	0xc7c	; 0xc7c <setMessage>
	}
}
 cbc:	df 91       	pop	r29
 cbe:	cf 91       	pop	r28
 cc0:	08 95       	ret

00000cc2 <getMessage>:
}
void setMessage(int m){
	messageReceived = m;
}
int getMessage(){
	return messageReceived;
 cc2:	80 91 91 02 	lds	r24, 0x0291
 cc6:	90 91 92 02 	lds	r25, 0x0292
}
 cca:	08 95       	ret

00000ccc <initINT0>:
 *  Author: Valdemar
 */ 
#include "ZCD.h"
volatile int counterTimer;
void initINT0(){
	DDRD &= 0b11111110;
 ccc:	50 98       	cbi	0x0a, 0	; 10
	EIMSK |= 0b00000001; // enable INT0
 cce:	e8 9a       	sbi	0x1d, 0	; 29
	EICRA |= 0b00000010; // falling edge triggered
 cd0:	e9 e6       	ldi	r30, 0x69	; 105
 cd2:	f0 e0       	ldi	r31, 0x00	; 0
 cd4:	80 81       	ld	r24, Z
 cd6:	82 60       	ori	r24, 0x02	; 2
 cd8:	80 83       	st	Z, r24
}
 cda:	08 95       	ret

00000cdc <disableINT0>:
void disableINT0(){
	EIMSK &= 0b11111110;
 cdc:	e8 98       	cbi	0x1d, 0	; 29
	EICRA &= 0b11111100;
 cde:	e9 e6       	ldi	r30, 0x69	; 105
 ce0:	f0 e0       	ldi	r31, 0x00	; 0
 ce2:	80 81       	ld	r24, Z
 ce4:	8c 7f       	andi	r24, 0xFC	; 252
 ce6:	80 83       	st	Z, r24
}
 ce8:	08 95       	ret

00000cea <initTimer3>:
void initTimer3(int ms){
	if(ms == 1){
 cea:	81 30       	cpi	r24, 0x01	; 1
 cec:	91 05       	cpc	r25, r1
 cee:	71 f4       	brne	.+28     	; 0xd0c <initTimer3+0x22>
		TCCR3A = 0;
 cf0:	10 92 90 00 	sts	0x0090, r1
		TIMSK3 = 1;
 cf4:	21 e0       	ldi	r18, 0x01	; 1
 cf6:	20 93 71 00 	sts	0x0071, r18
		TCNT3 = 65535 - 5984;
 cfa:	8f e9       	ldi	r24, 0x9F	; 159
 cfc:	98 ee       	ldi	r25, 0xE8	; 232
 cfe:	90 93 95 00 	sts	0x0095, r25
 d02:	80 93 94 00 	sts	0x0094, r24
		TCCR3B = 1;
 d06:	20 93 91 00 	sts	0x0091, r18
 d0a:	08 95       	ret
	}	
	else if(ms == 10){
 d0c:	8a 30       	cpi	r24, 0x0A	; 10
 d0e:	91 05       	cpc	r25, r1
 d10:	49 f4       	brne	.+18     	; 0xd24 <initTimer3+0x3a>
		TCCR3B = 2;
 d12:	82 e0       	ldi	r24, 0x02	; 2
 d14:	80 93 91 00 	sts	0x0091, r24
		TCNT3 = 65536 - 20000;
 d18:	80 ee       	ldi	r24, 0xE0	; 224
 d1a:	91 eb       	ldi	r25, 0xB1	; 177
 d1c:	90 93 95 00 	sts	0x0095, r25
 d20:	80 93 94 00 	sts	0x0094, r24
 d24:	08 95       	ret

00000d26 <stopTimer3>:
	}
}
void stopTimer3(){
	TCCR3A = 0;
 d26:	10 92 90 00 	sts	0x0090, r1
	TCCR3B = 0;
 d2a:	10 92 91 00 	sts	0x0091, r1
	TIMSK3 = 0;
 d2e:	10 92 71 00 	sts	0x0071, r1
}
 d32:	08 95       	ret

00000d34 <setCounterTimer>:
void setCounterTimer(int c){
	counterTimer = c;
 d34:	90 93 96 02 	sts	0x0296, r25
 d38:	80 93 95 02 	sts	0x0295, r24
}
 d3c:	08 95       	ret

00000d3e <getCounterTimer>:
int getCounterTimer(){
	return counterTimer;
 d3e:	80 91 95 02 	lds	r24, 0x0295
 d42:	90 91 96 02 	lds	r25, 0x0296
}
 d46:	08 95       	ret

00000d48 <__udivmodsi4>:
 d48:	a1 e2       	ldi	r26, 0x21	; 33
 d4a:	1a 2e       	mov	r1, r26
 d4c:	aa 1b       	sub	r26, r26
 d4e:	bb 1b       	sub	r27, r27
 d50:	fd 01       	movw	r30, r26
 d52:	0d c0       	rjmp	.+26     	; 0xd6e <__udivmodsi4_ep>

00000d54 <__udivmodsi4_loop>:
 d54:	aa 1f       	adc	r26, r26
 d56:	bb 1f       	adc	r27, r27
 d58:	ee 1f       	adc	r30, r30
 d5a:	ff 1f       	adc	r31, r31
 d5c:	a2 17       	cp	r26, r18
 d5e:	b3 07       	cpc	r27, r19
 d60:	e4 07       	cpc	r30, r20
 d62:	f5 07       	cpc	r31, r21
 d64:	20 f0       	brcs	.+8      	; 0xd6e <__udivmodsi4_ep>
 d66:	a2 1b       	sub	r26, r18
 d68:	b3 0b       	sbc	r27, r19
 d6a:	e4 0b       	sbc	r30, r20
 d6c:	f5 0b       	sbc	r31, r21

00000d6e <__udivmodsi4_ep>:
 d6e:	66 1f       	adc	r22, r22
 d70:	77 1f       	adc	r23, r23
 d72:	88 1f       	adc	r24, r24
 d74:	99 1f       	adc	r25, r25
 d76:	1a 94       	dec	r1
 d78:	69 f7       	brne	.-38     	; 0xd54 <__udivmodsi4_loop>
 d7a:	60 95       	com	r22
 d7c:	70 95       	com	r23
 d7e:	80 95       	com	r24
 d80:	90 95       	com	r25
 d82:	9b 01       	movw	r18, r22
 d84:	ac 01       	movw	r20, r24
 d86:	bd 01       	movw	r22, r26
 d88:	cf 01       	movw	r24, r30
 d8a:	08 95       	ret

00000d8c <itoa>:
 d8c:	fb 01       	movw	r30, r22
 d8e:	9f 01       	movw	r18, r30
 d90:	e8 94       	clt
 d92:	42 30       	cpi	r20, 0x02	; 2
 d94:	c4 f0       	brlt	.+48     	; 0xdc6 <itoa+0x3a>
 d96:	45 32       	cpi	r20, 0x25	; 37
 d98:	b4 f4       	brge	.+44     	; 0xdc6 <itoa+0x3a>
 d9a:	4a 30       	cpi	r20, 0x0A	; 10
 d9c:	29 f4       	brne	.+10     	; 0xda8 <itoa+0x1c>
 d9e:	97 fb       	bst	r25, 7
 da0:	1e f4       	brtc	.+6      	; 0xda8 <itoa+0x1c>
 da2:	90 95       	com	r25
 da4:	81 95       	neg	r24
 da6:	9f 4f       	sbci	r25, 0xFF	; 255
 da8:	64 2f       	mov	r22, r20
 daa:	77 27       	eor	r23, r23
 dac:	0e 94 f7 06 	call	0xdee	; 0xdee <__udivmodhi4>
 db0:	80 5d       	subi	r24, 0xD0	; 208
 db2:	8a 33       	cpi	r24, 0x3A	; 58
 db4:	0c f0       	brlt	.+2      	; 0xdb8 <itoa+0x2c>
 db6:	89 5d       	subi	r24, 0xD9	; 217
 db8:	81 93       	st	Z+, r24
 dba:	cb 01       	movw	r24, r22
 dbc:	00 97       	sbiw	r24, 0x00	; 0
 dbe:	a1 f7       	brne	.-24     	; 0xda8 <itoa+0x1c>
 dc0:	16 f4       	brtc	.+4      	; 0xdc6 <itoa+0x3a>
 dc2:	5d e2       	ldi	r21, 0x2D	; 45
 dc4:	51 93       	st	Z+, r21
 dc6:	10 82       	st	Z, r1
 dc8:	c9 01       	movw	r24, r18
 dca:	0c 94 e7 06 	jmp	0xdce	; 0xdce <strrev>

00000dce <strrev>:
 dce:	dc 01       	movw	r26, r24
 dd0:	fc 01       	movw	r30, r24
 dd2:	67 2f       	mov	r22, r23
 dd4:	71 91       	ld	r23, Z+
 dd6:	77 23       	and	r23, r23
 dd8:	e1 f7       	brne	.-8      	; 0xdd2 <strrev+0x4>
 dda:	32 97       	sbiw	r30, 0x02	; 2
 ddc:	04 c0       	rjmp	.+8      	; 0xde6 <strrev+0x18>
 dde:	7c 91       	ld	r23, X
 de0:	6d 93       	st	X+, r22
 de2:	70 83       	st	Z, r23
 de4:	62 91       	ld	r22, -Z
 de6:	ae 17       	cp	r26, r30
 de8:	bf 07       	cpc	r27, r31
 dea:	c8 f3       	brcs	.-14     	; 0xdde <strrev+0x10>
 dec:	08 95       	ret

00000dee <__udivmodhi4>:
 dee:	aa 1b       	sub	r26, r26
 df0:	bb 1b       	sub	r27, r27
 df2:	51 e1       	ldi	r21, 0x11	; 17
 df4:	07 c0       	rjmp	.+14     	; 0xe04 <__udivmodhi4_ep>

00000df6 <__udivmodhi4_loop>:
 df6:	aa 1f       	adc	r26, r26
 df8:	bb 1f       	adc	r27, r27
 dfa:	a6 17       	cp	r26, r22
 dfc:	b7 07       	cpc	r27, r23
 dfe:	10 f0       	brcs	.+4      	; 0xe04 <__udivmodhi4_ep>
 e00:	a6 1b       	sub	r26, r22
 e02:	b7 0b       	sbc	r27, r23

00000e04 <__udivmodhi4_ep>:
 e04:	88 1f       	adc	r24, r24
 e06:	99 1f       	adc	r25, r25
 e08:	5a 95       	dec	r21
 e0a:	a9 f7       	brne	.-22     	; 0xdf6 <__udivmodhi4_loop>
 e0c:	80 95       	com	r24
 e0e:	90 95       	com	r25
 e10:	bc 01       	movw	r22, r24
 e12:	cd 01       	movw	r24, r26
 e14:	08 95       	ret

00000e16 <_exit>:
 e16:	f8 94       	cli

00000e18 <__stop_program>:
 e18:	ff cf       	rjmp	.-2      	; 0xe18 <__stop_program>
